(imatplotlib.font_manager
FontManager
p1
(dp2
S'afm_lookup_cache'
p3
(dp4
sS'ttflist'
p5
(lp6
ccopy_reg
_reconstructor
p7
(cmatplotlib.font_manager
FontEntry
p8
c__builtin__
object
p9
NtRp10
(dp11
S'style'
p12
S'normal'
p13
sS'name'
p14
S'STIXNonUnicode'
p15
sS'weight'
p16
I700
sS'stretch'
p17
g13
sS'variant'
p18
g13
sS'fname'
p19
S'/home/alexandre/envs/mypy2/local/lib/python2.7/site-packages/matplotlib/mpl-data/fonts/ttf/STIXNonUniBol.ttf'
p20
sS'size'
p21
S'scalable'
p22
sbag7
(g8
g9
NtRp23
(dp24
g12
g13
sg14
S'cmb10'
p25
sg16
I400
sg17
g13
sg18
g13
sg19
S'/home/alexandre/envs/mypy2/local/lib/python2.7/site-packages/matplotlib/mpl-data/fonts/ttf/cmb10.ttf'
p26
sg21
g22
sbag7
(g8
g9
NtRp27
(dp28
g12
g13
sg14
S'cmtt10'
p29
sg16
I400
sg17
g13
sg18
g13
sg19
S'/home/alexandre/envs/mypy2/local/lib/python2.7/site-packages/matplotlib/mpl-data/fonts/ttf/cmtt10.ttf'
p30
sg21
g22
sbag7
(g8
g9
NtRp31
(dp32
g12
S'oblique'
p33
sg14
S'Bitstream Vera Sans'
p34
sg16
I400
sg17
g13
sg18
g13
sg19
S'/home/alexandre/envs/mypy2/local/lib/python2.7/site-packages/matplotlib/mpl-data/fonts/ttf/VeraIt.ttf'
p35
sg21
g22
sbag7
(g8
g9
NtRp36
(dp37
g12
g13
sg14
S'cmss10'
p38
sg16
I400
sg17
g13
sg18
g13
sg19
S'/home/alexandre/envs/mypy2/local/lib/python2.7/site-packages/matplotlib/mpl-data/fonts/ttf/cmss10.ttf'
p39
sg21
g22
sbag7
(g8
g9
NtRp40
(dp41
g12
S'italic'
p42
sg14
S'STIXGeneral'
p43
sg16
I700
sg17
g13
sg18
g13
sg19
S'/home/alexandre/envs/mypy2/local/lib/python2.7/site-packages/matplotlib/mpl-data/fonts/ttf/STIXGeneralBolIta.ttf'
p44
sg21
g22
sbag7
(g8
g9
NtRp45
(dp46
g12
g13
sg14
S'STIXSizeFourSym'
p47
sg16
I700
sg17
g13
sg18
g13
sg19
S'/home/alexandre/envs/mypy2/local/lib/python2.7/site-packages/matplotlib/mpl-data/fonts/ttf/STIXSizFourSymBol.ttf'
p48
sg21
g22
sbag7
(g8
g9
NtRp49
(dp50
g12
g13
sg14
S'STIXSizeFourSym'
p51
sg16
I400
sg17
g13
sg18
g13
sg19
S'/home/alexandre/envs/mypy2/local/lib/python2.7/site-packages/matplotlib/mpl-data/fonts/ttf/STIXSizFourSymReg.ttf'
p52
sg21
g22
sbag7
(g8
g9
NtRp53
(dp54
g12
g33
sg14
S'Bitstream Vera Sans'
p55
sg16
I700
sg17
g13
sg18
g13
sg19
S'/home/alexandre/envs/mypy2/local/lib/python2.7/site-packages/matplotlib/mpl-data/fonts/ttf/VeraBI.ttf'
p56
sg21
g22
sbag7
(g8
g9
NtRp57
(dp58
g12
g13
sg14
S'Bitstream Vera Sans Mono'
p59
sg16
I700
sg17
g13
sg18
g13
sg19
S'/home/alexandre/envs/mypy2/local/lib/python2.7/site-packages/matplotlib/mpl-data/fonts/ttf/VeraMoBd.ttf'
p60
sg21
g22
sbag7
(g8
g9
NtRp61
(dp62
g12
g13
sg14
S'cmr10'
p63
sg16
I400
sg17
g13
sg18
g13
sg19
S'/home/alexandre/envs/mypy2/local/lib/python2.7/site-packages/matplotlib/mpl-data/fonts/ttf/cmr10.ttf'
p64
sg21
g22
sbag7
(g8
g9
NtRp65
(dp66
g12
g13
sg14
S'Bitstream Vera Sans Mono'
p67
sg16
I400
sg17
g13
sg18
g13
sg19
S'/home/alexandre/envs/mypy2/local/lib/python2.7/site-packages/matplotlib/mpl-data/fonts/ttf/VeraMono.ttf'
p68
sg21
g22
sbag7
(g8
g9
NtRp69
(dp70
g12
g13
sg14
S'STIXSizeTwoSym'
p71
sg16
I400
sg17
g13
sg18
g13
sg19
S'/home/alexandre/envs/mypy2/local/lib/python2.7/site-packages/matplotlib/mpl-data/fonts/ttf/STIXSizTwoSymReg.ttf'
p72
sg21
g22
sbag7
(g8
g9
NtRp73
(dp74
g12
g13
sg14
S'STIXSizeThreeSym'
p75
sg16
I700
sg17
g13
sg18
g13
sg19
S'/home/alexandre/envs/mypy2/local/lib/python2.7/site-packages/matplotlib/mpl-data/fonts/ttf/STIXSizThreeSymBol.ttf'
p76
sg21
g22
sbag7
(g8
g9
NtRp77
(dp78
g12
g13
sg14
S'STIXSizeOneSym'
p79
sg16
I700
sg17
g13
sg18
g13
sg19
S'/home/alexandre/envs/mypy2/local/lib/python2.7/site-packages/matplotlib/mpl-data/fonts/ttf/STIXSizOneSymBol.ttf'
p80
sg21
g22
sbag7
(g8
g9
NtRp81
(dp82
g12
g13
sg14
S'STIXSizeFiveSym'
p83
sg16
I400
sg17
g13
sg18
g13
sg19
S'/home/alexandre/envs/mypy2/local/lib/python2.7/site-packages/matplotlib/mpl-data/fonts/ttf/STIXSizFiveSymReg.ttf'
p84
sg21
g22
sbag7
(g8
g9
NtRp85
(dp86
g12
g33
sg14
S'Bitstream Vera Sans Mono'
p87
sg16
I400
sg17
g13
sg18
g13
sg19
S'/home/alexandre/envs/mypy2/local/lib/python2.7/site-packages/matplotlib/mpl-data/fonts/ttf/VeraMoIt.ttf'
p88
sg21
g22
sbag7
(g8
g9
NtRp89
(dp90
g12
g13
sg14
S'Bitstream Vera Serif'
p91
sg16
I700
sg17
g13
sg18
g13
sg19
S'/home/alexandre/envs/mypy2/local/lib/python2.7/site-packages/matplotlib/mpl-data/fonts/ttf/VeraSeBd.ttf'
p92
sg21
g22
sbag7
(g8
g9
NtRp93
(dp94
g12
g13
sg14
S'Bitstream Vera Sans'
p95
sg16
I700
sg17
g13
sg18
g13
sg19
S'/home/alexandre/envs/mypy2/local/lib/python2.7/site-packages/matplotlib/mpl-data/fonts/ttf/VeraBd.ttf'
p96
sg21
g22
sbag7
(g8
g9
NtRp97
(dp98
g12
g33
sg14
S'Bitstream Vera Sans Mono'
p99
sg16
I700
sg17
g13
sg18
g13
sg19
S'/home/alexandre/envs/mypy2/local/lib/python2.7/site-packages/matplotlib/mpl-data/fonts/ttf/VeraMoBI.ttf'
p100
sg21
g22
sbag7
(g8
g9
NtRp101
(dp102
g12
g42
sg14
S'STIXNonUnicode'
p103
sg16
I400
sg17
g13
sg18
g13
sg19
S'/home/alexandre/envs/mypy2/local/lib/python2.7/site-packages/matplotlib/mpl-data/fonts/ttf/STIXNonUniIta.ttf'
p104
sg21
g22
sbag7
(g8
g9
NtRp105
(dp106
g12
g13
sg14
S'STIXSizeTwoSym'
p107
sg16
I700
sg17
g13
sg18
g13
sg19
S'/home/alexandre/envs/mypy2/local/lib/python2.7/site-packages/matplotlib/mpl-data/fonts/ttf/STIXSizTwoSymBol.ttf'
p108
sg21
g22
sbag7
(g8
g9
NtRp109
(dp110
g12
g13
sg14
S'Bitstream Vera Serif'
p111
sg16
I400
sg17
g13
sg18
g13
sg19
S'/home/alexandre/envs/mypy2/local/lib/python2.7/site-packages/matplotlib/mpl-data/fonts/ttf/VeraSe.ttf'
p112
sg21
g22
sbag7
(g8
g9
NtRp113
(dp114
g12
g13
sg14
S'STIXGeneral'
p115
sg16
I700
sg17
g13
sg18
g13
sg19
S'/home/alexandre/envs/mypy2/local/lib/python2.7/site-packages/matplotlib/mpl-data/fonts/ttf/STIXGeneralBol.ttf'
p116
sg21
g22
sbag7
(g8
g9
NtRp117
(dp118
g12
g13
sg14
S'Bitstream Vera Sans'
p119
sg16
I400
sg17
g13
sg18
g13
sg19
S'/home/alexandre/envs/mypy2/local/lib/python2.7/site-packages/matplotlib/mpl-data/fonts/ttf/Vera.ttf'
p120
sg21
g22
sbag7
(g8
g9
NtRp121
(dp122
g12
g13
sg14
S'STIXSizeOneSym'
p123
sg16
I400
sg17
g13
sg18
g13
sg19
S'/home/alexandre/envs/mypy2/local/lib/python2.7/site-packages/matplotlib/mpl-data/fonts/ttf/STIXSizOneSymReg.ttf'
p124
sg21
g22
sbag7
(g8
g9
NtRp125
(dp126
g12
g13
sg14
S'cmex10'
p127
sg16
I400
sg17
g13
sg18
g13
sg19
S'/home/alexandre/envs/mypy2/local/lib/python2.7/site-packages/matplotlib/mpl-data/fonts/ttf/cmex10.ttf'
p128
sg21
g22
sbag7
(g8
g9
NtRp129
(dp130
g12
g13
sg14
S'cmmi10'
p131
sg16
I400
sg17
g13
sg18
g13
sg19
S'/home/alexandre/envs/mypy2/local/lib/python2.7/site-packages/matplotlib/mpl-data/fonts/ttf/cmmi10.ttf'
p132
sg21
g22
sbag7
(g8
g9
NtRp133
(dp134
g12
g13
sg14
S'STIXGeneral'
p135
sg16
I400
sg17
g13
sg18
g13
sg19
S'/home/alexandre/envs/mypy2/local/lib/python2.7/site-packages/matplotlib/mpl-data/fonts/ttf/STIXGeneral.ttf'
p136
sg21
g22
sbag7
(g8
g9
NtRp137
(dp138
g12
g13
sg14
S'STIXSizeThreeSym'
p139
sg16
I400
sg17
g13
sg18
g13
sg19
S'/home/alexandre/envs/mypy2/local/lib/python2.7/site-packages/matplotlib/mpl-data/fonts/ttf/STIXSizThreeSymReg.ttf'
p140
sg21
g22
sbag7
(g8
g9
NtRp141
(dp142
g12
g13
sg14
S'STIXNonUnicode'
p143
sg16
I400
sg17
g13
sg18
g13
sg19
S'/home/alexandre/envs/mypy2/local/lib/python2.7/site-packages/matplotlib/mpl-data/fonts/ttf/STIXNonUni.ttf'
p144
sg21
g22
sbag7
(g8
g9
NtRp145
(dp146
g12
g42
sg14
S'STIXNonUnicode'
p147
sg16
I700
sg17
g13
sg18
g13
sg19
S'/home/alexandre/envs/mypy2/local/lib/python2.7/site-packages/matplotlib/mpl-data/fonts/ttf/STIXNonUniBolIta.ttf'
p148
sg21
g22
sbag7
(g8
g9
NtRp149
(dp150
g12
g13
sg14
S'cmsy10'
p151
sg16
I400
sg17
g13
sg18
g13
sg19
S'/home/alexandre/envs/mypy2/local/lib/python2.7/site-packages/matplotlib/mpl-data/fonts/ttf/cmsy10.ttf'
p152
sg21
g22
sbag7
(g8
g9
NtRp153
(dp154
g12
g42
sg14
S'STIXGeneral'
p155
sg16
I400
sg17
g13
sg18
g13
sg19
S'/home/alexandre/envs/mypy2/local/lib/python2.7/site-packages/matplotlib/mpl-data/fonts/ttf/STIXGeneralItalic.ttf'
p156
sg21
g22
sbag7
(g8
g9
NtRp157
(dp158
g12
g13
sg14
S'Droid Sans Ethiopic'
p159
sg16
I700
sg17
g13
sg18
g13
sg19
S'/usr/share/fonts/truetype/droid/DroidSansEthiopic-Bold.ttf'
p160
sg21
g22
sbag7
(g8
g9
NtRp161
(dp162
g12
g42
sg14
S'Latin Modern Roman'
p163
sg16
I500
sg17
g13
sg18
g13
sg19
S'/usr/share/texmf/fonts/opentype/public/lm/lmroman8-italic.otf'
p164
sg21
g22
sbag7
(g8
g9
NtRp165
(dp166
g12
g13
sg14
S'Latin Modern Mono Caps'
p167
sg16
I400
sg17
g13
sg18
g13
sg19
S'/usr/share/texmf/fonts/opentype/public/lm/lmmonocaps10-regular.otf'
p168
sg21
g22
sbag7
(g8
g9
NtRp169
(dp170
g12
g42
sg14
S'EHUSans'
p171
sg16
I400
sg17
g13
sg18
g13
sg19
S'/home/alexandre/.fonts/EHUSans-Italic.otf'
p172
sg21
g22
sbag7
(g8
g9
NtRp173
(dp174
g12
g13
sg14
S'KacstScreen'
p175
sg16
I400
sg17
g13
sg18
g13
sg19
S'/usr/share/fonts/truetype/kacst/KacstScreen.ttf'
p176
sg21
g22
sbag7
(g8
g9
NtRp177
(dp178
g12
g13
sg14
S'KacstTitle'
p179
sg16
I400
sg17
g13
sg18
g13
sg19
S'/usr/share/fonts/truetype/kacst/KacstTitle.ttf'
p180
sg21
g22
sbag7
(g8
g9
NtRp181
(dp182
g12
g33
sg14
S'Norasi'
p183
sg16
I400
sg17
g13
sg18
g13
sg19
S'/usr/share/fonts/truetype/tlwg/Norasi-Oblique.ttf'
p184
sg21
g22
sbag7
(g8
g9
NtRp185
(dp186
g12
g42
sg14
S'Latin Modern Roman'
p187
sg16
I500
sg17
g13
sg18
g13
sg19
S'/usr/share/texmf/fonts/opentype/public/lm/lmroman10-italic.otf'
p188
sg21
g22
sbag7
(g8
g9
NtRp189
(dp190
g12
g13
sg14
S'BahamasHeavy'
p191
sg16
I800
sg17
g13
sg18
g13
sg19
S'/home/alexandre/.fonts/BAHAMAHN.TTF'
p192
sg21
g22
sbag7
(g8
g9
NtRp193
(dp194
g12
g13
sg14
S'TakaoPGothic'
p195
sg16
I400
sg17
g13
sg18
g13
sg19
S'/usr/share/fonts/truetype/fonts-japanese-gothic.ttf'
p196
sg21
g22
sbag7
(g8
g9
NtRp197
(dp198
g12
g13
sg14
S'DejaVu Serif'
p199
sg16
I400
sg17
g13
sg18
g13
sg19
S'/usr/share/fonts/truetype/dejavu/DejaVuSerif.ttf'
p200
sg21
g22
sbag7
(g8
g9
NtRp201
(dp202
g12
g33
sg14
S'Waree'
p203
sg16
I400
sg17
g13
sg18
g13
sg19
S'/usr/share/fonts/truetype/tlwg/Waree-Oblique.ttf'
p204
sg21
g22
sbag7
(g8
g9
NtRp205
(dp206
g12
g13
sg14
S'BahamasLight'
p207
sg16
I200
sg17
g13
sg18
g13
sg19
S'/home/alexandre/.fonts/BAHAMAL0.TTF'
p208
sg21
g22
sbag7
(g8
g9
NtRp209
(dp210
g12
g42
sg14
S'TeX Gyre Termes'
p211
sg16
I700
sg17
g13
sg18
g13
sg19
S'/usr/share/texmf/fonts/opentype/public/tex-gyre/texgyretermes-bolditalic.otf'
p212
sg21
g22
sbag7
(g8
g9
NtRp213
(dp214
g12
g13
sg14
S'Latin Modern Roman'
p215
sg16
I700
sg17
g13
sg18
g13
sg19
S'/usr/share/texmf/fonts/opentype/public/lm/lmroman8-bold.otf'
p216
sg21
g22
sbag7
(g8
g9
NtRp217
(dp218
g12
g13
sg14
S'Latin Modern Mono'
p219
sg16
I400
sg17
g13
sg18
g13
sg19
S'/usr/share/texmf/fonts/opentype/public/lm/lmmono10-regular.otf'
p220
sg21
g22
sbag7
(g8
g9
NtRp221
(dp222
g12
g13
sg14
S'Roboto'
p223
sg16
I700
sg17
g13
sg18
g13
sg19
S'/home/alexandre/.fonts/Roboto-Bold.ttf'
p224
sg21
g22
sbag7
(g8
g9
NtRp225
(dp226
g12
g42
sg14
S'Roboto'
p227
sg16
I500
sg17
g13
sg18
g13
sg19
S'/home/alexandre/.fonts/Roboto-MediumItalic.ttf'
p228
sg21
g22
sbag7
(g8
g9
NtRp229
(dp230
g12
g13
sg14
S'DejaVu Serif'
p231
sg16
I700
sg17
S'condensed'
p232
sg18
g13
sg19
S'/usr/share/fonts/truetype/dejavu/DejaVuSerifCondensed-Bold.ttf'
p233
sg21
g22
sbag7
(g8
g9
NtRp234
(dp235
g12
g13
sg14
S'Latin Modern Roman'
p236
sg16
I400
sg17
g13
sg18
g13
sg19
S'/usr/share/texmf/fonts/opentype/public/lm/lmroman12-regular.otf'
p237
sg21
g22
sbag7
(g8
g9
NtRp238
(dp239
g12
g13
sg14
S'Tlwg Typist'
p240
sg16
I400
sg17
g13
sg18
g13
sg19
S'/usr/share/fonts/truetype/tlwg/TlwgTypist.ttf'
p241
sg21
g22
sbag7
(g8
g9
NtRp242
(dp243
g12
g13
sg14
S'NanumGothic'
p244
sg16
I400
sg17
g13
sg18
g13
sg19
S'/usr/share/fonts/truetype/nanum/NanumGothic.ttf'
p245
sg21
g22
sbag7
(g8
g9
NtRp246
(dp247
g12
g13
sg14
S'Droid Arabic Naskh'
p248
sg16
I400
sg17
g13
sg18
g13
sg19
S'/usr/share/fonts/truetype/droid/DroidNaskh-Regular.ttf'
p249
sg21
g22
sbag7
(g8
g9
NtRp250
(dp251
g12
g42
sg14
S'Liberation Sans'
p252
sg16
I400
sg17
g13
sg18
g13
sg19
S'/usr/share/fonts/truetype/liberation/LiberationSans-Italic.ttf'
p253
sg21
g22
sbag7
(g8
g9
NtRp254
(dp255
g12
g33
sg14
S'DejaVu Sans Mono'
p256
sg16
I400
sg17
g13
sg18
g13
sg19
S'/usr/share/fonts/truetype/dejavu/DejaVuSansMono-Oblique.ttf'
p257
sg21
g22
sbag7
(g8
g9
NtRp258
(dp259
g12
g13
sg14
S'Latin Modern Roman'
p260
sg16
I700
sg17
g13
sg18
g13
sg19
S'/usr/share/texmf/fonts/opentype/public/lm/lmroman12-bold.otf'
p261
sg21
g22
sbag7
(g8
g9
NtRp262
(dp263
g12
g13
sg14
S'TeX Gyre Cursor'
p264
sg16
I400
sg17
g13
sg18
g13
sg19
S'/usr/share/texmf/fonts/opentype/public/tex-gyre/texgyrecursor-regular.otf'
p265
sg21
g22
sbag7
(g8
g9
NtRp266
(dp267
g12
g13
sg14
S'Droid Sans Hebrew'
p268
sg16
I700
sg17
g13
sg18
g13
sg19
S'/usr/share/fonts/truetype/droid/DroidSansHebrew-Bold.ttf'
p269
sg21
g22
sbag7
(g8
g9
NtRp270
(dp271
g12
g42
sg14
S'Roboto'
p272
sg16
I200
sg17
g13
sg18
g13
sg19
S'/home/alexandre/.fonts/Roboto-LightItalic.ttf'
p273
sg21
g22
sbag7
(g8
g9
NtRp274
(dp275
g12
g13
sg14
S'Droid Arabic Naskh'
p276
sg16
I700
sg17
g13
sg18
g13
sg19
S'/usr/share/fonts/truetype/droid/DroidNaskh-Bold.ttf'
p277
sg21
g22
sbag7
(g8
g9
NtRp278
(dp279
g12
g13
sg14
S'Ubuntu Mono'
p280
sg16
I400
sg17
g13
sg18
g13
sg19
S'/usr/share/fonts/truetype/ubuntu-font-family/UbuntuMono-R.ttf'
p281
sg21
g22
sbag7
(g8
g9
NtRp282
(dp283
g12
g33
sg14
S'Loma'
p284
sg16
I400
sg17
g13
sg18
g13
sg19
S'/usr/share/fonts/truetype/tlwg/Loma-Oblique.ttf'
p285
sg21
g22
sbag7
(g8
g9
NtRp286
(dp287
g12
g13
sg14
S'Droid Serif'
p288
sg16
I400
sg17
g13
sg18
g13
sg19
S'/usr/share/fonts/truetype/droid/DroidSerif-Regular.ttf'
p289
sg21
g22
sbag7
(g8
g9
NtRp290
(dp291
g12
g13
sg14
S'Latin Modern Roman'
p292
sg16
I400
sg17
g13
sg18
g13
sg19
S'/usr/share/texmf/fonts/opentype/public/lm/lmroman5-regular.otf'
p293
sg21
g22
sbag7
(g8
g9
NtRp294
(dp295
g12
g13
sg14
S'Latin Modern Roman Slanted'
p296
sg16
I400
sg17
g13
sg18
g13
sg19
S'/usr/share/texmf/fonts/opentype/public/lm/lmromanslant12-regular.otf'
p297
sg21
g22
sbag7
(g8
g9
NtRp298
(dp299
g12
g42
sg14
S'Roboto'
p300
sg16
I400
sg17
g232
sg18
g13
sg19
S'/home/alexandre/.fonts/Roboto-CondensedItalic.ttf'
p301
sg21
g22
sbag7
(g8
g9
NtRp302
(dp303
g12
g42
sg14
S'Latin Modern Mono'
p304
sg16
I400
sg17
g13
sg18
g13
sg19
S'/usr/share/texmf/fonts/opentype/public/lm/lmmono10-italic.otf'
p305
sg21
g22
sbag7
(g8
g9
NtRp306
(dp307
g12
g13
sg14
S'KacstNaskh'
p308
sg16
I400
sg17
g13
sg18
g13
sg19
S'/usr/share/fonts/truetype/kacst/KacstNaskh.ttf'
p309
sg21
g22
sbag7
(g8
g9
NtRp310
(dp311
g12
g42
sg14
S'Kinnari'
p312
sg16
I700
sg17
g13
sg18
g13
sg19
S'/usr/share/fonts/truetype/tlwg/Kinnari-BoldItalic.ttf'
p313
sg21
g22
sbag7
(g8
g9
NtRp314
(dp315
g12
g13
sg14
S'Sawasdee'
p316
sg16
I400
sg17
g13
sg18
g13
sg19
S'/usr/share/fonts/truetype/tlwg/Sawasdee.ttf'
p317
sg21
g22
sbag7
(g8
g9
NtRp318
(dp319
g12
g33
sg14
S'DejaVu Sans Mono'
p320
sg16
I700
sg17
g13
sg18
g13
sg19
S'/usr/share/fonts/truetype/dejavu/DejaVuSansMono-BoldOblique.ttf'
p321
sg21
g22
sbag7
(g8
g9
NtRp322
(dp323
g12
g13
sg14
S'FreeSans'
p324
sg16
I700
sg17
g13
sg18
g13
sg19
S'/usr/share/fonts/truetype/freefont/FreeSansBold.ttf'
p325
sg21
g22
sbag7
(g8
g9
NtRp326
(dp327
g12
g13
sg14
S'Roboto'
p328
sg16
I400
sg17
g232
sg18
g13
sg19
S'/home/alexandre/.fonts/Roboto-Condensed.ttf'
p329
sg21
g22
sbag7
(g8
g9
NtRp330
(dp331
g12
g13
sg14
S'TeX Gyre Heros Cn'
p332
sg16
I400
sg17
g13
sg18
g13
sg19
S'/usr/share/texmf/fonts/opentype/public/tex-gyre/texgyreheroscn-regular.otf'
p333
sg21
g22
sbag7
(g8
g9
NtRp334
(dp335
g12
g13
sg14
S'Latin Modern Mono'
p336
sg16
I400
sg17
g13
sg18
g13
sg19
S'/usr/share/texmf/fonts/opentype/public/lm/lmmono8-regular.otf'
p337
sg21
g22
sbag7
(g8
g9
NtRp338
(dp339
g12
g13
sg14
S'Purisa'
p340
sg16
I700
sg17
g13
sg18
g13
sg19
S'/usr/share/fonts/truetype/tlwg/Purisa-Bold.ttf'
p341
sg21
g22
sbag7
(g8
g9
NtRp342
(dp343
g12
g13
sg14
S'EHUSans'
p344
sg16
I900
sg17
g13
sg18
g13
sg19
S'/home/alexandre/.fonts/EHUSans-black.otf'
p345
sg21
g22
sbag7
(g8
g9
NtRp346
(dp347
g12
g13
sg14
S'Tlwg Typist'
p348
sg16
I700
sg17
g13
sg18
g13
sg19
S'/usr/share/fonts/truetype/tlwg/TlwgTypist-Bold.ttf'
p349
sg21
g22
sbag7
(g8
g9
NtRp350
(dp351
g12
g33
sg14
S'Latin Modern Mono Prop'
p352
sg16
I400
sg17
g13
sg18
g13
sg19
S'/usr/share/texmf/fonts/opentype/public/lm/lmmonoprop10-oblique.otf'
p353
sg21
g22
sbag7
(g8
g9
NtRp354
(dp355
g12
g13
sg14
S'KacstPoster'
p356
sg16
I400
sg17
g13
sg18
g13
sg19
S'/usr/share/fonts/truetype/kacst/KacstPoster.ttf'
p357
sg21
g22
sbag7
(g8
g9
NtRp358
(dp359
g12
g13
sg14
S'Purisa'
p360
sg16
I400
sg17
g13
sg18
g13
sg19
S'/usr/share/fonts/truetype/tlwg/Purisa.ttf'
p361
sg21
g22
sbag7
(g8
g9
NtRp362
(dp363
g12
g42
sg14
S'Ubuntu'
p364
sg16
I200
sg17
g13
sg18
g13
sg19
S'/usr/share/fonts/truetype/ubuntu-font-family/Ubuntu-LI.ttf'
p365
sg21
g22
sbag7
(g8
g9
NtRp366
(dp367
g12
g13
sg14
S'Droid Sans Mono'
p368
sg16
I400
sg17
g13
sg18
g13
sg19
S'/usr/share/fonts/truetype/droid/DroidSansMono.ttf'
p369
sg21
g22
sbag7
(g8
g9
NtRp370
(dp371
g12
g33
sg14
S'Umpush'
p372
sg16
I400
sg17
g13
sg18
g13
sg19
S'/usr/share/fonts/truetype/tlwg/Umpush-Oblique.ttf'
p373
sg21
g22
sbag7
(g8
g9
NtRp374
(dp375
g12
g13
sg14
S'NanumGothic'
p376
sg16
I700
sg17
g13
sg18
g13
sg19
S'/usr/share/fonts/truetype/nanum/NanumGothicBold.ttf'
p377
sg21
g22
sbag7
(g8
g9
NtRp378
(dp379
g12
g42
sg14
S'Liberation Mono'
p380
sg16
I700
sg17
g13
sg18
g13
sg19
S'/usr/share/fonts/truetype/liberation/LiberationMono-BoldItalic.ttf'
p381
sg21
g22
sbag7
(g8
g9
NtRp382
(dp383
g12
g42
sg14
S'Sansation Light'
p384
sg16
I200
sg17
g13
sg18
g13
sg19
S'/home/alexandre/.fonts/Sansation_Light_Italic.ttf'
p385
sg21
g22
sbag7
(g8
g9
NtRp386
(dp387
g12
g13
sg14
S'Comfortaa'
p388
sg16
I200
sg17
g13
sg18
g13
sg19
S'/home/alexandre/.fonts/Comfortaa-Light.ttf'
p389
sg21
g22
sbag7
(g8
g9
NtRp390
(dp391
g12
g13
sg14
S'Ubuntu Mono'
p392
sg16
I700
sg17
g13
sg18
g13
sg19
S'/usr/share/fonts/truetype/ubuntu-font-family/UbuntuMono-B.ttf'
p393
sg21
g22
sbag7
(g8
g9
NtRp394
(dp395
g12
g13
sg14
S'TeX Gyre Bonum'
p396
sg16
I700
sg17
g13
sg18
g13
sg19
S'/usr/share/texmf/fonts/opentype/public/tex-gyre/texgyrebonum-bold.otf'
p397
sg21
g22
sbag7
(g8
g9
NtRp398
(dp399
g12
g42
sg14
S'Norasi'
p400
sg16
I400
sg17
g13
sg18
g13
sg19
S'/usr/share/fonts/truetype/tlwg/Norasi-Italic.ttf'
p401
sg21
g22
sbag7
(g8
g9
NtRp402
(dp403
g12
g13
sg14
S'Droid Sans Fallback'
p404
sg16
I400
sg17
g13
sg18
g13
sg19
S'/usr/share/fonts/truetype/droid/DroidSansFallbackFull.ttf'
p405
sg21
g22
sbag7
(g8
g9
NtRp406
(dp407
g12
g13
sg14
S'Khmer OS System'
p408
sg16
I400
sg17
g13
sg18
g13
sg19
S'/usr/share/fonts/truetype/ttf-khmeros-core/KhmerOSsys.ttf'
p409
sg21
g22
sbag7
(g8
g9
NtRp410
(dp411
g12
g42
sg14
S'DejaVu Serif'
p412
sg16
I700
sg17
g13
sg18
g13
sg19
S'/usr/share/fonts/truetype/dejavu/DejaVuSerif-BoldItalic.ttf'
p413
sg21
g22
sbag7
(g8
g9
NtRp414
(dp415
g12
g33
sg14
S'Tlwg Typist'
p416
sg16
I400
sg17
g13
sg18
g13
sg19
S'/usr/share/fonts/truetype/tlwg/TlwgTypist-Oblique.ttf'
p417
sg21
g22
sbag7
(g8
g9
NtRp418
(dp419
g12
g13
sg14
S'Norasi'
p420
sg16
I400
sg17
g13
sg18
g13
sg19
S'/usr/share/fonts/truetype/tlwg/Norasi.ttf'
p421
sg21
g22
sbag7
(g8
g9
NtRp422
(dp423
g12
g42
sg14
S'Latin Modern Roman'
p424
sg16
I500
sg17
g13
sg18
g13
sg19
S'/usr/share/texmf/fonts/opentype/public/lm/lmroman12-italic.otf'
p425
sg21
g22
sbag7
(g8
g9
NtRp426
(dp427
g12
g13
sg14
S'Mukti Narrow'
p428
sg16
I700
sg17
g13
sg18
g13
sg19
S'/usr/share/fonts/truetype/ttf-indic-fonts-core/MuktiNarrowBold.ttf'
p429
sg21
g22
sbag7
(g8
g9
NtRp430
(dp431
g12
g13
sg14
S'Latin Modern Sans'
p432
sg16
I400
sg17
g13
sg18
g13
sg19
S'/usr/share/texmf/fonts/opentype/public/lm/lmsans12-regular.otf'
p433
sg21
g22
sbag7
(g8
g9
NtRp434
(dp435
g12
g13
sg14
S'DejaVu Sans'
p436
sg16
I700
sg17
g13
sg18
g13
sg19
S'/usr/share/fonts/truetype/dejavu/DejaVuSans-Bold.ttf'
p437
sg21
g22
sbag7
(g8
g9
NtRp438
(dp439
g12
g42
sg14
S'Ubuntu'
p440
sg16
I400
sg17
g13
sg18
g13
sg19
S'/usr/share/fonts/truetype/ubuntu-font-family/Ubuntu-RI.ttf'
p441
sg21
g22
sbag7
(g8
g9
NtRp442
(dp443
g12
g13
sg14
S'NanumBarunGothic'
p444
sg16
I400
sg17
g13
sg18
g13
sg19
S'/usr/share/fonts/truetype/nanum/NanumBarunGothic.ttf'
p445
sg21
g22
sbag7
(g8
g9
NtRp446
(dp447
g12
g42
sg14
S'Latin Modern Roman'
p448
sg16
I500
sg17
g13
sg18
g13
sg19
S'/usr/share/texmf/fonts/opentype/public/lm/lmroman7-italic.otf'
p449
sg21
g22
sbag7
(g8
g9
NtRp450
(dp451
g12
g13
sg14
S'Latin Modern Math'
p452
sg16
I400
sg17
g13
sg18
g13
sg19
S'/usr/share/texmf/fonts/opentype/public/lm-math/latinmodernmath-regular.otf'
p453
sg21
g22
sbag7
(g8
g9
NtRp454
(dp455
g12
g42
sg14
S'Latin Modern Roman'
p456
sg16
I500
sg17
g13
sg18
g13
sg19
S'/usr/share/texmf/fonts/opentype/public/lm/lmroman9-italic.otf'
p457
sg21
g22
sbag7
(g8
g9
NtRp458
(dp459
g12
g13
sg14
S'Liberation Serif'
p460
sg16
I400
sg17
g13
sg18
g13
sg19
S'/usr/share/fonts/truetype/liberation/LiberationSerif-Regular.ttf'
p461
sg21
g22
sbag7
(g8
g9
NtRp462
(dp463
g12
g13
sg14
S'Lohit Tamil'
p464
sg16
I400
sg17
g13
sg18
g13
sg19
S'/usr/share/fonts/truetype/ttf-indic-fonts-core/lohit_ta.ttf'
p465
sg21
g22
sbag7
(g8
g9
NtRp466
(dp467
g12
g13
sg14
S'Kinnari'
p468
sg16
I400
sg17
g13
sg18
g13
sg19
S'/usr/share/fonts/truetype/tlwg/Kinnari.ttf'
p469
sg21
g22
sbag7
(g8
g9
NtRp470
(dp471
g12
g13
sg14
S'Latin Modern Sans'
p472
sg16
I400
sg17
g13
sg18
g13
sg19
S'/usr/share/texmf/fonts/opentype/public/lm/lmsans8-regular.otf'
p473
sg21
g22
sbag7
(g8
g9
NtRp474
(dp475
g12
g42
sg14
S'Ubuntu Mono'
p476
sg16
I700
sg17
g13
sg18
g13
sg19
S'/usr/share/fonts/truetype/ubuntu-font-family/UbuntuMono-BI.ttf'
p477
sg21
g22
sbag7
(g8
g9
NtRp478
(dp479
g12
g13
sg14
S'TeX Gyre Pagella'
p480
sg16
I400
sg17
g13
sg18
g13
sg19
S'/usr/share/texmf/fonts/opentype/public/tex-gyre/texgyrepagella-regular.otf'
p481
sg21
g22
sbag7
(g8
g9
NtRp482
(dp483
g12
g42
sg14
S'TeX Gyre Pagella'
p484
sg16
I400
sg17
g13
sg18
g13
sg19
S'/usr/share/texmf/fonts/opentype/public/tex-gyre/texgyrepagella-italic.otf'
p485
sg21
g22
sbag7
(g8
g9
NtRp486
(dp487
g12
g13
sg14
S'TlwgMono'
p488
sg16
I400
sg17
g13
sg18
g13
sg19
S'/usr/share/fonts/truetype/tlwg/TlwgMono.ttf'
p489
sg21
g22
sbag7
(g8
g9
NtRp490
(dp491
g12
g13
sg14
S'Latin Modern Roman Caps'
p492
sg16
I400
sg17
g13
sg18
g13
sg19
S'/usr/share/texmf/fonts/opentype/public/lm/lmromancaps10-regular.otf'
p493
sg21
g22
sbag7
(g8
g9
NtRp494
(dp495
g12
g33
sg14
S'Latin Modern Sans'
p496
sg16
I400
sg17
g13
sg18
g13
sg19
S'/usr/share/texmf/fonts/opentype/public/lm/lmsans17-oblique.otf'
p497
sg21
g22
sbag7
(g8
g9
NtRp498
(dp499
g12
g33
sg14
S'Purisa'
p500
sg16
I400
sg17
g13
sg18
g13
sg19
S'/usr/share/fonts/truetype/tlwg/Purisa-Oblique.ttf'
p501
sg21
g22
sbag7
(g8
g9
NtRp502
(dp503
g12
g42
sg14
S'Kinnari'
p504
sg16
I400
sg17
g13
sg18
g13
sg19
S'/usr/share/fonts/truetype/tlwg/Kinnari-Italic.ttf'
p505
sg21
g22
sbag7
(g8
g9
NtRp506
(dp507
g12
g13
sg14
S'FreeMono'
p508
sg16
I700
sg17
g13
sg18
g13
sg19
S'/usr/share/fonts/truetype/freefont/FreeMonoBold.ttf'
p509
sg21
g22
sbag7
(g8
g9
NtRp510
(dp511
g12
g13
sg14
S'Sansation'
p512
sg16
I700
sg17
g13
sg18
g13
sg19
S'/home/alexandre/.fonts/Sansation_Bold.ttf'
p513
sg21
g22
sbag7
(g8
g9
NtRp514
(dp515
g12
g42
sg14
S'Ubuntu Mono'
p516
sg16
I400
sg17
g13
sg18
g13
sg19
S'/usr/share/fonts/truetype/ubuntu-font-family/UbuntuMono-RI.ttf'
p517
sg21
g22
sbag7
(g8
g9
NtRp518
(dp519
g12
g13
sg14
S'DejaVu Sans'
p520
sg16
I700
sg17
g232
sg18
g13
sg19
S'/usr/share/fonts/truetype/dejavu/DejaVuSansCondensed-Bold.ttf'
p521
sg21
g22
sbag7
(g8
g9
NtRp522
(dp523
g12
g33
sg14
S'TlwgTypewriter'
p524
sg16
I400
sg17
g13
sg18
g13
sg19
S'/usr/share/fonts/truetype/tlwg/TlwgTypewriter-Oblique.ttf'
p525
sg21
g22
sbag7
(g8
g9
NtRp526
(dp527
g12
g33
sg14
S'Latin Modern Mono Prop Light'
p528
sg16
I700
sg17
g13
sg18
g13
sg19
S'/usr/share/texmf/fonts/opentype/public/lm/lmmonoproplt10-boldoblique.otf'
p529
sg21
g22
sbag7
(g8
g9
NtRp530
(dp531
g12
g13
sg14
S'EHUSerif'
p532
sg16
I900
sg17
g13
sg18
g13
sg19
S'/home/alexandre/.fonts/EHUSerif-Black.otf'
p533
sg21
g22
sbag7
(g8
g9
NtRp534
(dp535
g12
g13
sg14
S'Roboto'
p536
sg16
I400
sg17
g13
sg18
g13
sg19
S'/home/alexandre/.fonts/Roboto-Thin.ttf'
p537
sg21
g22
sbag7
(g8
g9
NtRp538
(dp539
g12
g13
sg14
S'Ubuntu'
p540
sg16
I500
sg17
g13
sg18
g13
sg19
S'/usr/share/fonts/truetype/ubuntu-font-family/Ubuntu-M.ttf'
p541
sg21
g22
sbag7
(g8
g9
NtRp542
(dp543
g12
g13
sg14
S'Garuda'
p544
sg16
I700
sg17
g13
sg18
g13
sg19
S'/usr/share/fonts/truetype/tlwg/Garuda-Bold.ttf'
p545
sg21
g22
sbag7
(g8
g9
NtRp546
(dp547
g12
g13
sg14
S'EHUSans'
p548
sg16
I200
sg17
g13
sg18
g13
sg19
S'/home/alexandre/.fonts/EHUSans-Light.otf'
p549
sg21
g22
sbag7
(g8
g9
NtRp550
(dp551
g12
g13
sg14
S'KacstLetter'
p552
sg16
I400
sg17
g13
sg18
g13
sg19
S'/usr/share/fonts/truetype/kacst/KacstLetter.ttf'
p553
sg21
g22
sbag7
(g8
g9
NtRp554
(dp555
g12
g42
sg14
S'Ubuntu'
p556
sg16
I700
sg17
g13
sg18
g13
sg19
S'/usr/share/fonts/truetype/ubuntu-font-family/Ubuntu-BI.ttf'
p557
sg21
g22
sbag7
(g8
g9
NtRp558
(dp559
g12
g13
sg14
S'Comfortaa'
p560
sg16
I700
sg17
g13
sg18
g13
sg19
S'/home/alexandre/.fonts/Comfortaa-Bold.ttf'
p561
sg21
g22
sbag7
(g8
g9
NtRp562
(dp563
g12
g13
sg14
S'Rachana'
p564
sg16
I400
sg17
g13
sg18
g13
sg19
S'/usr/share/fonts/truetype/ttf-indic-fonts-core/Rachana_04.ttf'
p565
sg21
g22
sbag7
(g8
g9
NtRp566
(dp567
g12
g13
sg14
S'Liberation Sans Narrow'
p568
sg16
I700
sg17
g232
sg18
g13
sg19
S'/usr/share/fonts/truetype/liberation/LiberationSansNarrow-Bold.ttf'
p569
sg21
g22
sbag7
(g8
g9
NtRp570
(dp571
g12
g13
sg14
S'Droid Sans Armenian'
p572
sg16
I400
sg17
g13
sg18
g13
sg19
S'/usr/share/fonts/truetype/droid/DroidSansArmenian.ttf'
p573
sg21
g22
sbag7
(g8
g9
NtRp574
(dp575
g12
g13
sg14
S'DejaVu Sans Mono'
p576
sg16
I700
sg17
g13
sg18
g13
sg19
S'/usr/share/fonts/truetype/dejavu/DejaVuSansMono-Bold.ttf'
p577
sg21
g22
sbag7
(g8
g9
NtRp578
(dp579
g12
g13
sg14
S'Roboto'
p580
sg16
I900
sg17
g13
sg18
g13
sg19
S'/home/alexandre/.fonts/Roboto-Black.ttf'
p581
sg21
g22
sbag7
(g8
g9
NtRp582
(dp583
g12
g33
sg14
S'DejaVu Sans'
p584
sg16
I400
sg17
g232
sg18
g13
sg19
S'/usr/share/fonts/truetype/dejavu/DejaVuSansCondensed-Oblique.ttf'
p585
sg21
g22
sbag7
(g8
g9
NtRp586
(dp587
g12
g33
sg14
S'DejaVu Sans'
p588
sg16
I400
sg17
g13
sg18
g13
sg19
S'/usr/share/fonts/truetype/dejavu/DejaVuSans-Oblique.ttf'
p589
sg21
g22
sbag7
(g8
g9
NtRp590
(dp591
g12
g13
sg14
S'NanumBarunGothic'
p592
sg16
I700
sg17
g13
sg18
g13
sg19
S'/usr/share/fonts/truetype/nanum/NanumBarunGothicBold.ttf'
p593
sg21
g22
sbag7
(g8
g9
NtRp594
(dp595
g12
g42
sg14
S'TeX Gyre Bonum'
p596
sg16
I700
sg17
g13
sg18
g13
sg19
S'/usr/share/texmf/fonts/opentype/public/tex-gyre/texgyrebonum-bolditalic.otf'
p597
sg21
g22
sbag7
(g8
g9
NtRp598
(dp599
g12
g13
sg14
S'TlwgMono'
p600
sg16
I700
sg17
g13
sg18
g13
sg19
S'/usr/share/fonts/truetype/tlwg/TlwgMono-Bold.ttf'
p601
sg21
g22
sbag7
(g8
g9
NtRp602
(dp603
g12
g42
sg14
S'Liberation Mono'
p604
sg16
I400
sg17
g13
sg18
g13
sg19
S'/usr/share/fonts/truetype/liberation/LiberationMono-Italic.ttf'
p605
sg21
g22
sbag7
(g8
g9
NtRp606
(dp607
g12
g42
sg14
S'Liberation Serif'
p608
sg16
I700
sg17
g13
sg18
g13
sg19
S'/usr/share/fonts/truetype/liberation/LiberationSerif-BoldItalic.ttf'
p609
sg21
g22
sbag7
(g8
g9
NtRp610
(dp611
g12
g13
sg14
S'EHUSerif'
p612
sg16
I200
sg17
g13
sg18
g13
sg19
S'/home/alexandre/.fonts/EHUSerif-Light.otf'
p613
sg21
g22
sbag7
(g8
g9
NtRp614
(dp615
g12
g13
sg14
S'Latin Modern Mono Light'
p616
sg16
I700
sg17
g13
sg18
g13
sg19
S'/usr/share/texmf/fonts/opentype/public/lm/lmmonolt10-bold.otf'
p617
sg21
g22
sbag7
(g8
g9
NtRp618
(dp619
g12
g13
sg14
S'Liberation Serif'
p620
sg16
I700
sg17
g13
sg18
g13
sg19
S'/usr/share/fonts/truetype/liberation/LiberationSerif-Bold.ttf'
p621
sg21
g22
sbag7
(g8
g9
NtRp622
(dp623
g12
g42
sg14
S'EHUSans'
p624
sg16
I700
sg17
g13
sg18
g13
sg19
S'/home/alexandre/.fonts/EHUSans-BoldItalic.otf'
p625
sg21
g22
sbag7
(g8
g9
NtRp626
(dp627
g12
g13
sg14
S'Pothana2000'
p628
sg16
I400
sg17
g13
sg18
g13
sg19
S'/usr/share/fonts/truetype/ttf-indic-fonts-core/Pothana2000.ttf'
p629
sg21
g22
sbag7
(g8
g9
NtRp630
(dp631
g12
g33
sg14
S'Latin Modern Mono Light'
p632
sg16
I700
sg17
g13
sg18
g13
sg19
S'/usr/share/texmf/fonts/opentype/public/lm/lmmonolt10-boldoblique.otf'
p633
sg21
g22
sbag7
(g8
g9
NtRp634
(dp635
g12
g13
sg14
S'DejaVu Serif'
p636
sg16
I400
sg17
g232
sg18
g13
sg19
S'/usr/share/fonts/truetype/dejavu/DejaVuSerifCondensed.ttf'
p637
sg21
g22
sbag7
(g8
g9
NtRp638
(dp639
g12
g13
sg14
S'ori1Uni'
p640
sg16
I500
sg17
g13
sg18
g13
sg19
S'/usr/share/fonts/truetype/ttf-indic-fonts-core/utkal.ttf'
p641
sg21
g22
sbag7
(g8
g9
NtRp642
(dp643
g12
g13
sg14
S'KacstQurn'
p644
sg16
I400
sg17
g13
sg18
g13
sg19
S'/usr/share/fonts/truetype/kacst/KacstQurn.ttf'
p645
sg21
g22
sbag7
(g8
g9
NtRp646
(dp647
g12
g13
sg14
S'Mukti Narrow'
p648
sg16
I400
sg17
g13
sg18
g13
sg19
S'/usr/share/fonts/truetype/ttf-indic-fonts-core/MuktiNarrow.ttf'
p649
sg21
g22
sbag7
(g8
g9
NtRp650
(dp651
g12
g13
sg14
S'Latin Modern Roman'
p652
sg16
I700
sg17
g13
sg18
g13
sg19
S'/usr/share/texmf/fonts/opentype/public/lm/lmroman6-bold.otf'
p653
sg21
g22
sbag7
(g8
g9
NtRp654
(dp655
g12
g42
sg14
S'TeX Gyre Termes'
p656
sg16
I400
sg17
g13
sg18
g13
sg19
S'/usr/share/texmf/fonts/opentype/public/tex-gyre/texgyretermes-italic.otf'
p657
sg21
g22
sbag7
(g8
g9
NtRp658
(dp659
g12
g13
sg14
S'Roboto'
p660
sg16
I400
sg17
g13
sg18
g13
sg19
S'/home/alexandre/.fonts/Roboto-Regular.ttf'
p661
sg21
g22
sbag7
(g8
g9
NtRp662
(dp663
g12
g13
sg14
S'Latin Modern Mono Prop'
p664
sg16
I400
sg17
g13
sg18
g13
sg19
S'/usr/share/texmf/fonts/opentype/public/lm/lmmonoprop10-regular.otf'
p665
sg21
g22
sbag7
(g8
g9
NtRp666
(dp667
g12
g13
sg14
S'Norasi'
p668
sg16
I700
sg17
g13
sg18
g13
sg19
S'/usr/share/fonts/truetype/tlwg/Norasi-Bold.ttf'
p669
sg21
g22
sbag7
(g8
g9
NtRp670
(dp671
g12
g42
sg14
S'TeX Gyre Heros'
p672
sg16
I400
sg17
g13
sg18
g13
sg19
S'/usr/share/texmf/fonts/opentype/public/tex-gyre/texgyreheros-italic.otf'
p673
sg21
g22
sbag7
(g8
g9
NtRp674
(dp675
g12
g42
sg14
S'TeX Gyre Heros Cn'
p676
sg16
I700
sg17
g13
sg18
g13
sg19
S'/usr/share/texmf/fonts/opentype/public/tex-gyre/texgyreheroscn-bolditalic.otf'
p677
sg21
g22
sbag7
(g8
g9
NtRp678
(dp679
g12
g33
sg14
S'Kinnari'
p680
sg16
I700
sg17
g13
sg18
g13
sg19
S'/usr/share/fonts/truetype/tlwg/Kinnari-BoldOblique.ttf'
p681
sg21
g22
sbag7
(g8
g9
NtRp682
(dp683
g12
g13
sg14
S'Mallige'
p684
sg16
I400
sg17
g13
sg18
g13
sg19
S'/usr/share/fonts/truetype/ttf-indic-fonts-core/Malige-n.ttf'
p685
sg21
g22
sbag7
(g8
g9
NtRp686
(dp687
g12
g13
sg14
S'KacstOne'
p688
sg16
I400
sg17
g13
sg18
g13
sg19
S'/usr/share/fonts/truetype/kacst-one/KacstOne.ttf'
p689
sg21
g22
sbag7
(g8
g9
NtRp690
(dp691
g12
g33
sg14
S'Latin Modern Sans'
p692
sg16
I700
sg17
g13
sg18
g13
sg19
S'/usr/share/texmf/fonts/opentype/public/lm/lmsans10-boldoblique.otf'
p693
sg21
g22
sbag7
(g8
g9
NtRp694
(dp695
g12
g42
sg14
S'TeX Gyre Schola'
p696
sg16
I700
sg17
g13
sg18
g13
sg19
S'/usr/share/texmf/fonts/opentype/public/tex-gyre/texgyreschola-bolditalic.otf'
p697
sg21
g22
sbag7
(g8
g9
NtRp698
(dp699
g12
g13
sg14
S'Lohit Bengali'
p700
sg16
I400
sg17
g13
sg18
g13
sg19
S'/usr/share/fonts/truetype/ttf-indic-fonts-core/lohit_bn.ttf'
p701
sg21
g22
sbag7
(g8
g9
NtRp702
(dp703
g12
g13
sg14
S'Latin Modern Roman Slanted'
p704
sg16
I400
sg17
g13
sg18
g13
sg19
S'/usr/share/texmf/fonts/opentype/public/lm/lmromanslant9-regular.otf'
p705
sg21
g22
sbag7
(g8
g9
NtRp706
(dp707
g12
g13
sg14
S'Latin Modern Mono Slanted'
p708
sg16
I400
sg17
g13
sg18
g13
sg19
S'/usr/share/texmf/fonts/opentype/public/lm/lmmonoslant10-regular.otf'
p709
sg21
g22
sbag7
(g8
g9
NtRp710
(dp711
g12
g33
sg14
S'Latin Modern Sans Quotation'
p712
sg16
I700
sg17
g13
sg18
g13
sg19
S'/usr/share/texmf/fonts/opentype/public/lm/lmsansquot8-boldoblique.otf'
p713
sg21
g22
sbag7
(g8
g9
NtRp714
(dp715
g12
g13
sg14
S'Saab'
p716
sg16
I400
sg17
g13
sg18
g13
sg19
S'/usr/share/fonts/truetype/ttf-punjabi-fonts/Saab.ttf'
p717
sg21
g22
sbag7
(g8
g9
NtRp718
(dp719
g12
g13
sg14
S'KacstBook'
p720
sg16
I400
sg17
g13
sg18
g13
sg19
S'/usr/share/fonts/truetype/kacst/KacstBook.ttf'
p721
sg21
g22
sbag7
(g8
g9
NtRp722
(dp723
g12
g42
sg14
S'Droid Serif'
p724
sg16
I700
sg17
g13
sg18
g13
sg19
S'/usr/share/fonts/truetype/droid/DroidSerif-BoldItalic.ttf'
p725
sg21
g22
sbag7
(g8
g9
NtRp726
(dp727
g12
g13
sg14
S'TeX Gyre Heros'
p728
sg16
I700
sg17
g13
sg18
g13
sg19
S'/usr/share/texmf/fonts/opentype/public/tex-gyre/texgyreheros-bold.otf'
p729
sg21
g22
sbag7
(g8
g9
NtRp730
(dp731
g12
g13
sg14
S'wasy10'
p732
sg16
I400
sg17
g13
sg18
g13
sg19
S'/usr/share/fonts/truetype/lyx/wasy10.ttf'
p733
sg21
g22
sbag7
(g8
g9
NtRp734
(dp735
g12
g13
sg14
S'Comfortaa'
p736
sg16
I400
sg17
g13
sg18
g13
sg19
S'/home/alexandre/.fonts/Comfortaa-Regular.ttf'
p737
sg21
g22
sbag7
(g8
g9
NtRp738
(dp739
g12
g13
sg14
S'EHUSerif'
p740
sg16
I700
sg17
g13
sg18
g13
sg19
S'/home/alexandre/.fonts/EHUSerif-Bold.otf'
p741
sg21
g22
sbag7
(g8
g9
NtRp742
(dp743
g12
g13
sg14
S'DejaVu Sans'
p744
sg16
I400
sg17
g232
sg18
g13
sg19
S'/usr/share/fonts/truetype/dejavu/DejaVuSansCondensed.ttf'
p745
sg21
g22
sbag7
(g8
g9
NtRp746
(dp747
g12
g13
sg14
S'Roboto'
p748
sg16
I500
sg17
g13
sg18
g13
sg19
S'/home/alexandre/.fonts/Roboto-Medium.ttf'
p749
sg21
g22
sbag7
(g8
g9
NtRp750
(dp751
g12
g33
sg14
S'DejaVu Sans'
p752
sg16
I700
sg17
g232
sg18
g13
sg19
S'/usr/share/fonts/truetype/dejavu/DejaVuSansCondensed-BoldOblique.ttf'
p753
sg21
g22
sbag7
(g8
g9
NtRp754
(dp755
g12
g13
sg14
S'Latin Modern Roman'
p756
sg16
I400
sg17
g13
sg18
g13
sg19
S'/usr/share/texmf/fonts/opentype/public/lm/lmroman8-regular.otf'
p757
sg21
g22
sbag7
(g8
g9
NtRp758
(dp759
g12
g13
sg14
S'KacstDecorative'
p760
sg16
I400
sg17
g13
sg18
g13
sg19
S'/usr/share/fonts/truetype/kacst/KacstDecorative.ttf'
p761
sg21
g22
sbag7
(g8
g9
NtRp762
(dp763
g12
g13
sg14
S'Ubuntu'
p764
sg16
I700
sg17
g13
sg18
g13
sg19
S'/usr/share/fonts/truetype/ubuntu-font-family/Ubuntu-B.ttf'
p765
sg21
g22
sbag7
(g8
g9
NtRp766
(dp767
g12
g33
sg14
S'FreeSans'
p768
sg16
I700
sg17
g13
sg18
g13
sg19
S'/usr/share/fonts/truetype/freefont/FreeSansBoldOblique.ttf'
p769
sg21
g22
sbag7
(g8
g9
NtRp770
(dp771
g12
g33
sg14
S'Latin Modern Sans'
p772
sg16
I400
sg17
g13
sg18
g13
sg19
S'/usr/share/texmf/fonts/opentype/public/lm/lmsans12-oblique.otf'
p773
sg21
g22
sbag7
(g8
g9
NtRp774
(dp775
g12
g13
sg14
S'Liberation Mono'
p776
sg16
I700
sg17
g13
sg18
g13
sg19
S'/usr/share/fonts/truetype/liberation/LiberationMono-Bold.ttf'
p777
sg21
g22
sbag7
(g8
g9
NtRp778
(dp779
g12
g33
sg14
S'Garuda'
p780
sg16
I700
sg17
g13
sg18
g13
sg19
S'/usr/share/fonts/truetype/tlwg/Garuda-BoldOblique.ttf'
p781
sg21
g22
sbag7
(g8
g9
NtRp782
(dp783
g12
g13
sg14
S'Padauk Book'
p784
sg16
I700
sg17
g13
sg18
g13
sg19
S'/usr/share/fonts/truetype/padauk/Padauk-bookbold.ttf'
p785
sg21
g22
sbag7
(g8
g9
NtRp786
(dp787
g12
g13
sg14
S'EHUSerif'
p788
sg16
I400
sg17
g13
sg18
g13
sg19
S'/home/alexandre/.fonts/EHUSerif-Regular.otf'
p789
sg21
g22
sbag7
(g8
g9
NtRp790
(dp791
g12
g13
sg14
S'FreeSans'
p792
sg16
I400
sg17
g13
sg18
g13
sg19
S'/usr/share/fonts/truetype/freefont/FreeSans.ttf'
p793
sg21
g22
sbag7
(g8
g9
NtRp794
(dp795
g12
g13
sg14
S'NanumMyeongjo'
p796
sg16
I700
sg17
g13
sg18
g13
sg19
S'/usr/share/fonts/truetype/nanum/NanumMyeongjoBold.ttf'
p797
sg21
g22
sbag7
(g8
g9
NtRp798
(dp799
g12
g33
sg14
S'Kinnari'
p800
sg16
I400
sg17
g13
sg18
g13
sg19
S'/usr/share/fonts/truetype/tlwg/Kinnari-Oblique.ttf'
p801
sg21
g22
sbag7
(g8
g9
NtRp802
(dp803
g12
g42
sg14
S'TeX Gyre Adventor'
p804
sg16
I700
sg17
g13
sg18
g13
sg19
S'/usr/share/texmf/fonts/opentype/public/tex-gyre/texgyreadventor-bolditalic.otf'
p805
sg21
g22
sbag7
(g8
g9
NtRp806
(dp807
g12
g13
sg14
S'Umpush'
p808
sg16
I200
sg17
g13
sg18
g13
sg19
S'/usr/share/fonts/truetype/tlwg/Umpush-Light.ttf'
p809
sg21
g22
sbag7
(g8
g9
NtRp810
(dp811
g12
g13
sg14
S'Droid Sans Ethiopic'
p812
sg16
I400
sg17
g13
sg18
g13
sg19
S'/usr/share/fonts/truetype/droid/DroidSansEthiopic-Regular.ttf'
p813
sg21
g22
sbag7
(g8
g9
NtRp814
(dp815
g12
g33
sg14
S'Purisa'
p816
sg16
I700
sg17
g13
sg18
g13
sg19
S'/usr/share/fonts/truetype/tlwg/Purisa-BoldOblique.ttf'
p817
sg21
g22
sbag7
(g8
g9
NtRp818
(dp819
g12
g13
sg14
S'TeX Gyre Heros'
p820
sg16
I400
sg17
g13
sg18
g13
sg19
S'/usr/share/texmf/fonts/opentype/public/tex-gyre/texgyreheros-regular.otf'
p821
sg21
g22
sbag7
(g8
g9
NtRp822
(dp823
g12
g13
sg14
S'DejaVu Sans'
p824
sg16
I400
sg17
g13
sg18
g13
sg19
S'/usr/share/fonts/truetype/dejavu/DejaVuSans.ttf'
p825
sg21
g22
sbag7
(g8
g9
NtRp826
(dp827
g12
g13
sg14
S'Phetsarath OT'
p828
sg16
I400
sg17
g13
sg18
g13
sg19
S'/usr/share/fonts/truetype/lao/Phetsarath_OT.ttf'
p829
sg21
g22
sbag7
(g8
g9
NtRp830
(dp831
g12
g33
sg14
S'FreeMono'
p832
sg16
I400
sg17
g13
sg18
g13
sg19
S'/usr/share/fonts/truetype/freefont/FreeMonoOblique.ttf'
p833
sg21
g22
sbag7
(g8
g9
NtRp834
(dp835
g12
g13
sg14
S'Liberation Sans Narrow'
p836
sg16
I400
sg17
g232
sg18
g13
sg19
S'/usr/share/fonts/truetype/liberation/LiberationSansNarrow-Regular.ttf'
p837
sg21
g22
sbag7
(g8
g9
NtRp838
(dp839
g12
g33
sg14
S'Latin Modern Sans Quotation'
p840
sg16
I700
sg17
g13
sg18
g13
sg19
S'/usr/share/texmf/fonts/opentype/public/lm/lmsansquot8-oblique.otf'
p841
sg21
g22
sbag7
(g8
g9
NtRp842
(dp843
g12
g33
sg14
S'Sawasdee'
p844
sg16
I400
sg17
g13
sg18
g13
sg19
S'/usr/share/fonts/truetype/tlwg/Sawasdee-Oblique.ttf'
p845
sg21
g22
sbag7
(g8
g9
NtRp846
(dp847
g12
g42
sg14
S'Latin Modern Roman'
p848
sg16
I700
sg17
g13
sg18
g13
sg19
S'/usr/share/texmf/fonts/opentype/public/lm/lmroman10-bolditalic.otf'
p849
sg21
g22
sbag7
(g8
g9
NtRp850
(dp851
g12
g13
sg14
S'Khmer OS'
p852
sg16
I400
sg17
g13
sg18
g13
sg19
S'/usr/share/fonts/truetype/ttf-khmeros-core/KhmerOS.ttf'
p853
sg21
g22
sbag7
(g8
g9
NtRp854
(dp855
g12
g13
sg14
S'Padauk'
p856
sg16
I400
sg17
g13
sg18
g13
sg19
S'/usr/share/fonts/truetype/padauk/Padauk.ttf'
p857
sg21
g22
sbag7
(g8
g9
NtRp858
(dp859
g12
g13
sg14
S'TeX Gyre Pagella'
p860
sg16
I700
sg17
g13
sg18
g13
sg19
S'/usr/share/texmf/fonts/opentype/public/tex-gyre/texgyrepagella-bold.otf'
p861
sg21
g22
sbag7
(g8
g9
NtRp862
(dp863
g12
g13
sg14
S'Latin Modern Mono Prop Light'
p864
sg16
I400
sg17
g13
sg18
g13
sg19
S'/usr/share/texmf/fonts/opentype/public/lm/lmmonoproplt10-regular.otf'
p865
sg21
g22
sbag7
(g8
g9
NtRp866
(dp867
g12
g13
sg14
S'TeX Gyre Heros Cn'
p868
sg16
I700
sg17
g13
sg18
g13
sg19
S'/usr/share/texmf/fonts/opentype/public/tex-gyre/texgyreheroscn-bold.otf'
p869
sg21
g22
sbag7
(g8
g9
NtRp870
(dp871
g12
g13
sg14
S'Waree'
p872
sg16
I400
sg17
g13
sg18
g13
sg19
S'/usr/share/fonts/truetype/tlwg/Waree.ttf'
p873
sg21
g22
sbag7
(g8
g9
NtRp874
(dp875
g12
g13
sg14
S'FreeMono'
p876
sg16
I400
sg17
g13
sg18
g13
sg19
S'/usr/share/fonts/truetype/freefont/FreeMono.ttf'
p877
sg21
g22
sbag7
(g8
g9
NtRp878
(dp879
g12
g13
sg14
S'Latin Modern Mono'
p880
sg16
I400
sg17
g13
sg18
g13
sg19
S'/usr/share/texmf/fonts/opentype/public/lm/lmmono9-regular.otf'
p881
sg21
g22
sbag7
(g8
g9
NtRp882
(dp883
g12
g13
sg14
S'Latin Modern Roman'
p884
sg16
I700
sg17
g13
sg18
g13
sg19
S'/usr/share/texmf/fonts/opentype/public/lm/lmroman10-bold.otf'
p885
sg21
g22
sbag7
(g8
g9
NtRp886
(dp887
g12
g13
sg14
S'Latin Modern Roman'
p888
sg16
I400
sg17
g13
sg18
g13
sg19
S'/usr/share/texmf/fonts/opentype/public/lm/lmroman7-regular.otf'
p889
sg21
g22
sbag7
(g8
g9
NtRp890
(dp891
g12
g13
sg14
S'Umpush'
p892
sg16
I400
sg17
g13
sg18
g13
sg19
S'/usr/share/fonts/truetype/tlwg/Umpush.ttf'
p893
sg21
g22
sbag7
(g8
g9
NtRp894
(dp895
g12
g42
sg14
S'TeX Gyre Heros'
p896
sg16
I700
sg17
g13
sg18
g13
sg19
S'/usr/share/texmf/fonts/opentype/public/tex-gyre/texgyreheros-bolditalic.otf'
p897
sg21
g22
sbag7
(g8
g9
NtRp898
(dp899
g12
g42
sg14
S'TeX Gyre Cursor'
p900
sg16
I700
sg17
g13
sg18
g13
sg19
S'/usr/share/texmf/fonts/opentype/public/tex-gyre/texgyrecursor-bolditalic.otf'
p901
sg21
g22
sbag7
(g8
g9
NtRp902
(dp903
g12
g13
sg14
S'Latin Modern Sans'
p904
sg16
I700
sg17
g13
sg18
g13
sg19
S'/usr/share/texmf/fonts/opentype/public/lm/lmsans10-bold.otf'
p905
sg21
g22
sbag7
(g8
g9
NtRp906
(dp907
g12
g13
sg14
S'DejaVu Sans Mono'
p908
sg16
I400
sg17
g13
sg18
g13
sg19
S'/usr/share/fonts/truetype/ttf-dejavu/DejaVuSansMono.ttf'
p909
sg21
g22
sbag7
(g8
g9
NtRp910
(dp911
g12
g13
sg14
S'Lohit Punjabi'
p912
sg16
I400
sg17
g13
sg18
g13
sg19
S'/usr/share/fonts/truetype/ttf-punjabi-fonts/lohit_pa.ttf'
p913
sg21
g22
sbag7
(g8
g9
NtRp914
(dp915
g12
g42
sg14
S'Roboto'
p916
sg16
I900
sg17
g13
sg18
g13
sg19
S'/home/alexandre/.fonts/Roboto-BlackItalic.ttf'
p917
sg21
g22
sbag7
(g8
g9
NtRp918
(dp919
g12
g13
sg14
S'FreeSerif'
p920
sg16
I700
sg17
g13
sg18
g13
sg19
S'/usr/share/fonts/truetype/freefont/FreeSerifBold.ttf'
p921
sg21
g22
sbag7
(g8
g9
NtRp922
(dp923
g12
g42
sg14
S'TeX Gyre Schola'
p924
sg16
I400
sg17
g13
sg18
g13
sg19
S'/usr/share/texmf/fonts/opentype/public/tex-gyre/texgyreschola-italic.otf'
p925
sg21
g22
sbag7
(g8
g9
NtRp926
(dp927
g12
g13
sg14
S'msam10'
p928
sg16
I400
sg17
g13
sg18
g13
sg19
S'/usr/share/fonts/truetype/lyx/msam10.ttf'
p929
sg21
g22
sbag7
(g8
g9
NtRp930
(dp931
g12
g13
sg14
S'TeX Gyre Termes'
p932
sg16
I400
sg17
g13
sg18
g13
sg19
S'/usr/share/texmf/fonts/opentype/public/tex-gyre/texgyretermes-regular.otf'
p933
sg21
g22
sbag7
(g8
g9
NtRp934
(dp935
g12
g13
sg14
S'LKLUG'
p936
sg16
I400
sg17
g13
sg18
g13
sg19
S'/usr/share/fonts/truetype/sinhala/lklug.ttf'
p937
sg21
g22
sbag7
(g8
g9
NtRp938
(dp939
g12
g13
sg14
S'Lohit Devanagari'
p940
sg16
I400
sg17
g13
sg18
g13
sg19
S'/usr/share/fonts/truetype/ttf-indic-fonts-core/lohit_hi.ttf'
p941
sg21
g22
sbag7
(g8
g9
NtRp942
(dp943
g12
g13
sg14
S'Sansation Light'
p944
sg16
I200
sg17
g13
sg18
g13
sg19
S'/home/alexandre/.fonts/Sansation_Light.ttf'
p945
sg21
g22
sbag7
(g8
g9
NtRp946
(dp947
g12
g13
sg14
S'Ubuntu'
p948
sg16
I400
sg17
g13
sg18
g13
sg19
S'/usr/share/fonts/truetype/ubuntu-font-family/Ubuntu-R.ttf'
p949
sg21
g22
sbag7
(g8
g9
NtRp950
(dp951
g12
g33
sg14
S'DejaVu Sans'
p952
sg16
I700
sg17
g13
sg18
g13
sg19
S'/usr/share/fonts/truetype/dejavu/DejaVuSans-BoldOblique.ttf'
p953
sg21
g22
sbag7
(g8
g9
NtRp954
(dp955
g12
g33
sg14
S'TlwgMono'
p956
sg16
I400
sg17
g13
sg18
g13
sg19
S'/usr/share/fonts/truetype/tlwg/TlwgMono-Oblique.ttf'
p957
sg21
g22
sbag7
(g8
g9
NtRp958
(dp959
g12
g42
sg14
S'TeX Gyre Pagella'
p960
sg16
I700
sg17
g13
sg18
g13
sg19
S'/usr/share/texmf/fonts/opentype/public/tex-gyre/texgyrepagella-bolditalic.otf'
p961
sg21
g22
sbag7
(g8
g9
NtRp962
(dp963
g12
g13
sg14
S'msbm10'
p964
sg16
I400
sg17
g13
sg18
g13
sg19
S'/usr/share/fonts/truetype/lyx/msbm10.ttf'
p965
sg21
g22
sbag7
(g8
g9
NtRp966
(dp967
g12
g42
sg14
S'DejaVu Serif'
p968
sg16
I400
sg17
g13
sg18
g13
sg19
S'/usr/share/fonts/truetype/dejavu/DejaVuSerif-Italic.ttf'
p969
sg21
g22
sbag7
(g8
g9
NtRp970
(dp971
g12
g33
sg14
S'Tlwg Typist'
p972
sg16
I700
sg17
g13
sg18
g13
sg19
S'/usr/share/fonts/truetype/tlwg/TlwgTypist-BoldOblique.ttf'
p973
sg21
g22
sbag7
(g8
g9
NtRp974
(dp975
g12
g33
sg14
S'TlwgMono'
p976
sg16
I700
sg17
g13
sg18
g13
sg19
S'/usr/share/fonts/truetype/tlwg/TlwgMono-BoldOblique.ttf'
p977
sg21
g22
sbag7
(g8
g9
NtRp978
(dp979
g12
g13
sg14
S'EHUSans'
p980
sg16
I400
sg17
g13
sg18
g13
sg19
S'/home/alexandre/.fonts/EHUSans-Regular.otf'
p981
sg21
g22
sbag7
(g8
g9
NtRp982
(dp983
g12
g13
sg14
S'TG Pagella Math'
p984
sg16
I400
sg17
g13
sg18
g13
sg19
S'/usr/share/texmf/fonts/opentype/public/tex-gyre-math/texgyrepagella-math.otf'
p985
sg21
g22
sbag7
(g8
g9
NtRp986
(dp987
g12
g13
sg14
S'TakaoPGothic'
p988
sg16
I400
sg17
g13
sg18
g13
sg19
S'/usr/share/fonts/truetype/takao-gothic/TakaoPGothic.ttf'
p989
sg21
g22
sbag7
(g8
g9
NtRp990
(dp991
g12
g13
sg14
S'Droid Sans'
p992
sg16
I400
sg17
g13
sg18
g13
sg19
S'/usr/share/fonts/truetype/droid/DroidSans.ttf'
p993
sg21
g22
sbag7
(g8
g9
NtRp994
(dp995
g12
g42
sg14
S'TeX Gyre Heros Cn'
p996
sg16
I400
sg17
g13
sg18
g13
sg19
S'/usr/share/texmf/fonts/opentype/public/tex-gyre/texgyreheroscn-italic.otf'
p997
sg21
g22
sbag7
(g8
g9
NtRp998
(dp999
g12
g13
sg14
S'Kedage'
p1000
sg16
I700
sg17
g13
sg18
g13
sg19
S'/usr/share/fonts/truetype/ttf-indic-fonts-core/Kedage-b.ttf'
p1001
sg21
g22
sbag7
(g8
g9
NtRp1002
(dp1003
g12
g13
sg14
S'DejaVu Serif'
p1004
sg16
I700
sg17
g13
sg18
g13
sg19
S'/usr/share/fonts/truetype/ttf-dejavu/DejaVuSerif-Bold.ttf'
p1005
sg21
g22
sbag7
(g8
g9
NtRp1006
(dp1007
g12
g13
sg14
S'Latin Modern Mono'
p1008
sg16
I400
sg17
g13
sg18
g13
sg19
S'/usr/share/texmf/fonts/opentype/public/lm/lmmono12-regular.otf'
p1009
sg21
g22
sbag7
(g8
g9
NtRp1010
(dp1011
g12
g42
sg14
S'Norasi'
p1012
sg16
I700
sg17
g13
sg18
g13
sg19
S'/usr/share/fonts/truetype/tlwg/Norasi-BoldItalic.ttf'
p1013
sg21
g22
sbag7
(g8
g9
NtRp1014
(dp1015
g12
g13
sg14
S'Umpush'
p1016
sg16
I700
sg17
g13
sg18
g13
sg19
S'/usr/share/fonts/truetype/tlwg/Umpush-Bold.ttf'
p1017
sg21
g22
sbag7
(g8
g9
NtRp1018
(dp1019
g12
g42
sg14
S'Liberation Sans'
p1020
sg16
I700
sg17
g13
sg18
g13
sg19
S'/usr/share/fonts/truetype/liberation/LiberationSans-BoldItalic.ttf'
p1021
sg21
g22
sbag7
(g8
g9
NtRp1022
(dp1023
g12
g13
sg14
S'TeX Gyre Adventor'
p1024
sg16
I700
sg17
g13
sg18
g13
sg19
S'/usr/share/texmf/fonts/opentype/public/tex-gyre/texgyreadventor-bold.otf'
p1025
sg21
g22
sbag7
(g8
g9
NtRp1026
(dp1027
g12
g33
sg14
S'Norasi'
p1028
sg16
I700
sg17
g13
sg18
g13
sg19
S'/usr/share/fonts/truetype/tlwg/Norasi-BoldOblique.ttf'
p1029
sg21
g22
sbag7
(g8
g9
NtRp1030
(dp1031
g12
g13
sg14
S'Latin Modern Mono Light Cond'
p1032
sg16
I400
sg17
g232
sg18
g13
sg19
S'/usr/share/texmf/fonts/opentype/public/lm/lmmonoltcond10-regular.otf'
p1033
sg21
g22
sbag7
(g8
g9
NtRp1034
(dp1035
g12
g13
sg14
S'Latin Modern Roman Demi'
p1036
sg16
I600
sg17
g13
sg18
g13
sg19
S'/usr/share/texmf/fonts/opentype/public/lm/lmromandemi10-regular.otf'
p1037
sg21
g22
sbag7
(g8
g9
NtRp1038
(dp1039
g12
g13
sg14
S'Ubuntu'
p1040
sg16
I200
sg17
g13
sg18
g13
sg19
S'/usr/share/fonts/truetype/ubuntu-font-family/Ubuntu-L.ttf'
p1041
sg21
g22
sbag7
(g8
g9
NtRp1042
(dp1043
g12
g33
sg14
S'Latin Modern Sans Demi Cond'
p1044
sg16
I600
sg17
g232
sg18
g13
sg19
S'/usr/share/texmf/fonts/opentype/public/lm/lmsansdemicond10-oblique.otf'
p1045
sg21
g22
sbag7
(g8
g9
NtRp1046
(dp1047
g12
g13
sg14
S'DejaVu Sans'
p1048
sg16
I200
sg17
g13
sg18
g13
sg19
S'/usr/share/fonts/truetype/dejavu/DejaVuSans-ExtraLight.ttf'
p1049
sg21
g22
sbag7
(g8
g9
NtRp1050
(dp1051
g12
g13
sg14
S'KacstFarsi'
p1052
sg16
I400
sg17
g13
sg18
g13
sg19
S'/usr/share/fonts/truetype/kacst/KacstFarsi.ttf'
p1053
sg21
g22
sbag7
(g8
g9
NtRp1054
(dp1055
g12
g13
sg14
S'Space Age'
p1056
sg16
I400
sg17
g13
sg18
g13
sg19
S'/home/alexandre/.fonts/space-age.ttf'
p1057
sg21
g22
sbag7
(g8
g9
NtRp1058
(dp1059
g12
g13
sg14
S'Latin Modern Roman Slanted'
p1060
sg16
I400
sg17
g13
sg18
g13
sg19
S'/usr/share/texmf/fonts/opentype/public/lm/lmromanslant17-regular.otf'
p1061
sg21
g22
sbag7
(g8
g9
NtRp1062
(dp1063
g12
g13
sg14
S'TeX Gyre Cursor'
p1064
sg16
I700
sg17
g13
sg18
g13
sg19
S'/usr/share/texmf/fonts/opentype/public/tex-gyre/texgyrecursor-bold.otf'
p1065
sg21
g22
sbag7
(g8
g9
NtRp1066
(dp1067
g12
g13
sg14
S'TeX Gyre Adventor'
p1068
sg16
I400
sg17
g13
sg18
g13
sg19
S'/usr/share/texmf/fonts/opentype/public/tex-gyre/texgyreadventor-regular.otf'
p1069
sg21
g22
sbag7
(g8
g9
NtRp1070
(dp1071
g12
g33
sg14
S'Latin Modern Mono Light Cond'
p1072
sg16
I200
sg17
g232
sg18
g13
sg19
S'/usr/share/texmf/fonts/opentype/public/lm/lmmonoltcond10-oblique.otf'
p1073
sg21
g22
sbag7
(g8
g9
NtRp1074
(dp1075
g12
g33
sg14
S'Loma'
p1076
sg16
I700
sg17
g13
sg18
g13
sg19
S'/usr/share/fonts/truetype/tlwg/Loma-BoldOblique.ttf'
p1077
sg21
g22
sbag7
(g8
g9
NtRp1078
(dp1079
g12
g13
sg14
S'TlwgTypewriter'
p1080
sg16
I400
sg17
g13
sg18
g13
sg19
S'/usr/share/fonts/truetype/tlwg/TlwgTypewriter.ttf'
p1081
sg21
g22
sbag7
(g8
g9
NtRp1082
(dp1083
g12
g13
sg14
S'Roboto'
p1084
sg16
I700
sg17
g232
sg18
g13
sg19
S'/home/alexandre/.fonts/Roboto-BoldCondensed.ttf'
p1085
sg21
g22
sbag7
(g8
g9
NtRp1086
(dp1087
g12
g13
sg14
S'Latin Modern Roman'
p1088
sg16
I700
sg17
g13
sg18
g13
sg19
S'/usr/share/texmf/fonts/opentype/public/lm/lmroman7-bold.otf'
p1089
sg21
g22
sbag7
(g8
g9
NtRp1090
(dp1091
g12
g13
sg14
S'TeX Gyre Termes'
p1092
sg16
I700
sg17
g13
sg18
g13
sg19
S'/usr/share/texmf/fonts/opentype/public/tex-gyre/texgyretermes-bold.otf'
p1093
sg21
g22
sbag7
(g8
g9
NtRp1094
(dp1095
g12
g13
sg14
S'gargi'
p1096
sg16
I400
sg17
g13
sg18
g13
sg19
S'/usr/share/fonts/truetype/ttf-indic-fonts-core/gargi.ttf'
p1097
sg21
g22
sbag7
(g8
g9
NtRp1098
(dp1099
g12
g13
sg14
S'Latin Modern Roman'
p1100
sg16
I700
sg17
g13
sg18
g13
sg19
S'/usr/share/texmf/fonts/opentype/public/lm/lmroman9-bold.otf'
p1101
sg21
g22
sbag7
(g8
g9
NtRp1102
(dp1103
g12
g33
sg14
S'Latin Modern Sans'
p1104
sg16
I400
sg17
g13
sg18
g13
sg19
S'/usr/share/texmf/fonts/opentype/public/lm/lmsans8-oblique.otf'
p1105
sg21
g22
sbag7
(g8
g9
NtRp1106
(dp1107
g12
g33
sg14
S'FreeMono'
p1108
sg16
I700
sg17
g13
sg18
g13
sg19
S'/usr/share/fonts/truetype/freefont/FreeMonoBoldOblique.ttf'
p1109
sg21
g22
sbag7
(g8
g9
NtRp1110
(dp1111
g12
g13
sg14
S'TeX Gyre Schola'
p1112
sg16
I700
sg17
g13
sg18
g13
sg19
S'/usr/share/texmf/fonts/opentype/public/tex-gyre/texgyreschola-bold.otf'
p1113
sg21
g22
sbag7
(g8
g9
NtRp1114
(dp1115
g12
g42
sg14
S'DejaVu Serif'
p1116
sg16
I400
sg17
g232
sg18
g13
sg19
S'/usr/share/fonts/truetype/dejavu/DejaVuSerifCondensed-Italic.ttf'
p1117
sg21
g22
sbag7
(g8
g9
NtRp1118
(dp1119
g12
g13
sg14
S'KacstArt'
p1120
sg16
I400
sg17
g13
sg18
g13
sg19
S'/usr/share/fonts/truetype/kacst/KacstArt.ttf'
p1121
sg21
g22
sbag7
(g8
g9
NtRp1122
(dp1123
g12
g42
sg14
S'Liberation Sans Narrow'
p1124
sg16
I700
sg17
g232
sg18
g13
sg19
S'/usr/share/fonts/truetype/liberation/LiberationSansNarrow-BoldItalic.ttf'
p1125
sg21
g22
sbag7
(g8
g9
NtRp1126
(dp1127
g12
g13
sg14
S'Latin Modern Roman Dunhill'
p1128
sg16
I400
sg17
g13
sg18
g13
sg19
S'/usr/share/texmf/fonts/opentype/public/lm/lmromandunh10-regular.otf'
p1129
sg21
g22
sbag7
(g8
g9
NtRp1130
(dp1131
g12
g13
sg14
S'Liberation Sans'
p1132
sg16
I400
sg17
g13
sg18
g13
sg19
S'/usr/share/fonts/truetype/liberation/LiberationSans-Regular.ttf'
p1133
sg21
g22
sbag7
(g8
g9
NtRp1134
(dp1135
g12
g13
sg14
S'Ubuntu Condensed'
p1136
sg16
I400
sg17
g232
sg18
g13
sg19
S'/usr/share/fonts/truetype/ubuntu-font-family/Ubuntu-C.ttf'
p1137
sg21
g22
sbag7
(g8
g9
NtRp1138
(dp1139
g12
g13
sg14
S'Latin Modern Sans'
p1140
sg16
I400
sg17
g13
sg18
g13
sg19
S'/usr/share/texmf/fonts/opentype/public/lm/lmsans17-regular.otf'
p1141
sg21
g22
sbag7
(g8
g9
NtRp1142
(dp1143
g12
g13
sg14
S'Kinnari'
p1144
sg16
I700
sg17
g13
sg18
g13
sg19
S'/usr/share/fonts/truetype/tlwg/Kinnari-Bold.ttf'
p1145
sg21
g22
sbag7
(g8
g9
NtRp1146
(dp1147
g12
g13
sg14
S'Bahamas'
p1148
sg16
I700
sg17
g13
sg18
g13
sg19
S'/home/alexandre/.fonts/BAHAMASB.TTF'
p1149
sg21
g22
sbag7
(g8
g9
NtRp1150
(dp1151
g12
g33
sg14
S'TlwgTypewriter'
p1152
sg16
I700
sg17
g13
sg18
g13
sg19
S'/usr/share/fonts/truetype/tlwg/TlwgTypewriter-BoldOblique.ttf'
p1153
sg21
g22
sbag7
(g8
g9
NtRp1154
(dp1155
g12
g13
sg14
S'TeX Gyre Chorus'
p1156
sg16
I400
sg17
g13
sg18
g13
sg19
S'/usr/share/texmf/fonts/opentype/public/tex-gyre/texgyrechorus-mediumitalic.otf'
p1157
sg21
g22
sbag7
(g8
g9
NtRp1158
(dp1159
g12
g13
sg14
S'FreeSerif'
p1160
sg16
I400
sg17
g13
sg18
g13
sg19
S'/usr/share/fonts/truetype/freefont/FreeSerif.ttf'
p1161
sg21
g22
sbag7
(g8
g9
NtRp1162
(dp1163
g12
g13
sg14
S'Latin Modern Roman Slanted'
p1164
sg16
I400
sg17
g13
sg18
g13
sg19
S'/usr/share/texmf/fonts/opentype/public/lm/lmromanslant10-regular.otf'
p1165
sg21
g22
sbag7
(g8
g9
NtRp1166
(dp1167
g12
g13
sg14
S'EHUSans'
p1168
sg16
I700
sg17
g13
sg18
g13
sg19
S'/home/alexandre/.fonts/EHUSans-Bold.otf'
p1169
sg21
g22
sbag7
(g8
g9
NtRp1170
(dp1171
g12
g13
sg14
S'Droid Sans Japanese'
p1172
sg16
I400
sg17
g13
sg18
g13
sg19
S'/usr/share/fonts/truetype/droid/DroidSansJapanese.ttf'
p1173
sg21
g22
sbag7
(g8
g9
NtRp1174
(dp1175
g12
g33
sg14
S'Sawasdee'
p1176
sg16
I700
sg17
g13
sg18
g13
sg19
S'/usr/share/fonts/truetype/tlwg/Sawasdee-BoldOblique.ttf'
p1177
sg21
g22
sbag7
(g8
g9
NtRp1178
(dp1179
g12
g13
sg14
S'Sawasdee'
p1180
sg16
I700
sg17
g13
sg18
g13
sg19
S'/usr/share/fonts/truetype/tlwg/Sawasdee-Bold.ttf'
p1181
sg21
g22
sbag7
(g8
g9
NtRp1182
(dp1183
g12
g13
sg14
S'Kedage'
p1184
sg16
I400
sg17
g13
sg18
g13
sg19
S'/usr/share/fonts/truetype/ttf-indic-fonts-core/Kedage-n.ttf'
p1185
sg21
g22
sbag7
(g8
g9
NtRp1186
(dp1187
g12
g13
sg14
S'Lohit Gujarati'
p1188
sg16
I400
sg17
g13
sg18
g13
sg19
S'/usr/share/fonts/truetype/ttf-indic-fonts-core/lohit_gu.ttf'
p1189
sg21
g22
sbag7
(g8
g9
NtRp1190
(dp1191
g12
g13
sg14
S'Latin Modern Sans Quotation'
p1192
sg16
I700
sg17
g13
sg18
g13
sg19
S'/usr/share/texmf/fonts/opentype/public/lm/lmsansquot8-bold.otf'
p1193
sg21
g22
sbag7
(g8
g9
NtRp1194
(dp1195
g12
g13
sg14
S'NanumMyeongjo'
p1196
sg16
I400
sg17
g13
sg18
g13
sg19
S'/usr/share/fonts/truetype/nanum/NanumMyeongjo.ttf'
p1197
sg21
g22
sbag7
(g8
g9
NtRp1198
(dp1199
g12
g13
sg14
S'Loma'
p1200
sg16
I700
sg17
g13
sg18
g13
sg19
S'/usr/share/fonts/truetype/tlwg/Loma-Bold.ttf'
p1201
sg21
g22
sbag7
(g8
g9
NtRp1202
(dp1203
g12
g13
sg14
S'KacstPen'
p1204
sg16
I400
sg17
g13
sg18
g13
sg19
S'/usr/share/fonts/truetype/kacst/KacstPen.ttf'
p1205
sg21
g22
sbag7
(g8
g9
NtRp1206
(dp1207
g12
g13
sg14
S'Latin Modern Sans Demi Cond'
p1208
sg16
I600
sg17
g232
sg18
g13
sg19
S'/usr/share/texmf/fonts/opentype/public/lm/lmsansdemicond10-regular.otf'
p1209
sg21
g22
sbag7
(g8
g9
NtRp1210
(dp1211
g12
g42
sg14
S'FreeSerif'
p1212
sg16
I400
sg17
g13
sg18
g13
sg19
S'/usr/share/fonts/truetype/freefont/FreeSerifItalic.ttf'
p1213
sg21
g22
sbag7
(g8
g9
NtRp1214
(dp1215
g12
g13
sg14
S'Latin Modern Roman Slanted'
p1216
sg16
I700
sg17
g13
sg18
g13
sg19
S'/usr/share/texmf/fonts/opentype/public/lm/lmromanslant10-bold.otf'
p1217
sg21
g22
sbag7
(g8
g9
NtRp1218
(dp1219
g12
g33
sg14
S'Latin Modern Roman Caps'
p1220
sg16
I500
sg17
g13
sg18
g13
sg19
S'/usr/share/texmf/fonts/opentype/public/lm/lmromancaps10-oblique.otf'
p1221
sg21
g22
sbag7
(g8
g9
NtRp1222
(dp1223
g12
g42
sg14
S'TeX Gyre Adventor'
p1224
sg16
I400
sg17
g13
sg18
g13
sg19
S'/usr/share/texmf/fonts/opentype/public/tex-gyre/texgyreadventor-italic.otf'
p1225
sg21
g22
sbag7
(g8
g9
NtRp1226
(dp1227
g12
g42
sg14
S'Liberation Sans Narrow'
p1228
sg16
I400
sg17
g232
sg18
g13
sg19
S'/usr/share/fonts/truetype/liberation/LiberationSansNarrow-Italic.ttf'
p1229
sg21
g22
sbag7
(g8
g9
NtRp1230
(dp1231
g12
g13
sg14
S'Mallige'
p1232
sg16
I700
sg17
g13
sg18
g13
sg19
S'/usr/share/fonts/truetype/ttf-indic-fonts-core/Malige-b.ttf'
p1233
sg21
g22
sbag7
(g8
g9
NtRp1234
(dp1235
g12
g42
sg14
S'TeX Gyre Cursor'
p1236
sg16
I400
sg17
g13
sg18
g13
sg19
S'/usr/share/texmf/fonts/opentype/public/tex-gyre/texgyrecursor-italic.otf'
p1237
sg21
g22
sbag7
(g8
g9
NtRp1238
(dp1239
g12
g13
sg14
S'Latin Modern Roman'
p1240
sg16
I400
sg17
g13
sg18
g13
sg19
S'/usr/share/texmf/fonts/opentype/public/lm/lmroman6-regular.otf'
p1241
sg21
g22
sbag7
(g8
g9
NtRp1242
(dp1243
g12
g42
sg14
S'DejaVu Serif'
p1244
sg16
I700
sg17
g232
sg18
g13
sg19
S'/usr/share/fonts/truetype/dejavu/DejaVuSerifCondensed-BoldItalic.ttf'
p1245
sg21
g22
sbag7
(g8
g9
NtRp1246
(dp1247
g12
g13
sg14
S'Latin Modern Sans'
p1248
sg16
I400
sg17
g13
sg18
g13
sg19
S'/usr/share/texmf/fonts/opentype/public/lm/lmsans9-regular.otf'
p1249
sg21
g22
sbag7
(g8
g9
NtRp1250
(dp1251
g12
g33
sg14
S'Latin Modern Mono Light'
p1252
sg16
I200
sg17
g13
sg18
g13
sg19
S'/usr/share/texmf/fonts/opentype/public/lm/lmmonolt10-oblique.otf'
p1253
sg21
g22
sbag7
(g8
g9
NtRp1254
(dp1255
g12
g13
sg14
S'Droid Serif'
p1256
sg16
I700
sg17
g13
sg18
g13
sg19
S'/usr/share/fonts/truetype/droid/DroidSerif-Bold.ttf'
p1257
sg21
g22
sbag7
(g8
g9
NtRp1258
(dp1259
g12
g13
sg14
S'Meera'
p1260
sg16
I400
sg17
g13
sg18
g13
sg19
S'/usr/share/fonts/truetype/ttf-indic-fonts-core/Meera_04.ttf'
p1261
sg21
g22
sbag7
(g8
g9
NtRp1262
(dp1263
g12
g42
sg14
S'Roboto'
p1264
sg16
I400
sg17
g13
sg18
g13
sg19
S'/home/alexandre/.fonts/Roboto-Italic.ttf'
p1265
sg21
g22
sbag7
(g8
g9
NtRp1266
(dp1267
g12
g33
sg14
S'Umpush'
p1268
sg16
I200
sg17
g13
sg18
g13
sg19
S'/usr/share/fonts/truetype/tlwg/Umpush-LightOblique.ttf'
p1269
sg21
g22
sbag7
(g8
g9
NtRp1270
(dp1271
g12
g13
sg14
S'Tlwg Typo'
p1272
sg16
I400
sg17
g13
sg18
g13
sg19
S'/usr/share/fonts/truetype/tlwg/TlwgTypo.ttf'
p1273
sg21
g22
sbag7
(g8
g9
NtRp1274
(dp1275
g12
g13
sg14
S'Sansation'
p1276
sg16
I400
sg17
g13
sg18
g13
sg19
S'/home/alexandre/.fonts/Sansation_Regular.ttf'
p1277
sg21
g22
sbag7
(g8
g9
NtRp1278
(dp1279
g12
g33
sg14
S'FreeSans'
p1280
sg16
I400
sg17
g13
sg18
g13
sg19
S'/usr/share/fonts/truetype/freefont/FreeSansOblique.ttf'
p1281
sg21
g22
sbag7
(g8
g9
NtRp1282
(dp1283
g12
g33
sg14
S'Latin Modern Roman Dunhill'
p1284
sg16
I500
sg17
g13
sg18
g13
sg19
S'/usr/share/texmf/fonts/opentype/public/lm/lmromandunh10-oblique.otf'
p1285
sg21
g22
sbag7
(g8
g9
NtRp1286
(dp1287
g12
g13
sg14
S'Liberation Sans'
p1288
sg16
I700
sg17
g13
sg18
g13
sg19
S'/usr/share/fonts/truetype/liberation/LiberationSans-Bold.ttf'
p1289
sg21
g22
sbag7
(g8
g9
NtRp1290
(dp1291
g12
g13
sg14
S'Liberation Mono'
p1292
sg16
I400
sg17
g13
sg18
g13
sg19
S'/usr/share/fonts/truetype/liberation/LiberationMono-Regular.ttf'
p1293
sg21
g22
sbag7
(g8
g9
NtRp1294
(dp1295
g12
g42
sg14
S'TeX Gyre Bonum'
p1296
sg16
I400
sg17
g13
sg18
g13
sg19
S'/usr/share/texmf/fonts/opentype/public/tex-gyre/texgyrebonum-italic.otf'
p1297
sg21
g22
sbag7
(g8
g9
NtRp1298
(dp1299
g12
g13
sg14
S'Latin Modern Sans'
p1300
sg16
I400
sg17
g13
sg18
g13
sg19
S'/usr/share/texmf/fonts/opentype/public/lm/lmsans10-regular.otf'
p1301
sg21
g22
sbag7
(g8
g9
NtRp1302
(dp1303
g12
g42
sg14
S'rsfs10'
p1304
sg16
I400
sg17
g13
sg18
g13
sg19
S'/usr/share/fonts/truetype/lyx/rsfs10.ttf'
p1305
sg21
g22
sbag7
(g8
g9
NtRp1306
(dp1307
g12
g13
sg14
S'Garuda'
p1308
sg16
I400
sg17
g13
sg18
g13
sg19
S'/usr/share/fonts/truetype/tlwg/Garuda.ttf'
p1309
sg21
g22
sbag7
(g8
g9
NtRp1310
(dp1311
g12
g13
sg14
S'mry_KacstQurn'
p1312
sg16
I400
sg17
g13
sg18
g13
sg19
S'/usr/share/fonts/truetype/kacst/mry_KacstQurn.ttf'
p1313
sg21
g22
sbag7
(g8
g9
NtRp1314
(dp1315
g12
g33
sg14
S'Latin Modern Sans'
p1316
sg16
I400
sg17
g13
sg18
g13
sg19
S'/usr/share/texmf/fonts/opentype/public/lm/lmsans10-oblique.otf'
p1317
sg21
g22
sbag7
(g8
g9
NtRp1318
(dp1319
g12
g13
sg14
S'Tibetan Machine Uni'
p1320
sg16
I400
sg17
g13
sg18
g13
sg19
S'/usr/share/fonts/truetype/tibetan-machine/TibetanMachineUni.ttf'
p1321
sg21
g22
sbag7
(g8
g9
NtRp1322
(dp1323
g12
g13
sg14
S'Latin Modern Sans Quotation'
p1324
sg16
I400
sg17
g13
sg18
g13
sg19
S'/usr/share/texmf/fonts/opentype/public/lm/lmsansquot8-regular.otf'
p1325
sg21
g22
sbag7
(g8
g9
NtRp1326
(dp1327
g12
g13
sg14
S'KacstOne'
p1328
sg16
I700
sg17
g13
sg18
g13
sg19
S'/usr/share/fonts/truetype/kacst-one/KacstOne-Bold.ttf'
p1329
sg21
g22
sbag7
(g8
g9
NtRp1330
(dp1331
g12
g33
sg14
S'Latin Modern Mono Caps'
p1332
sg16
I400
sg17
g13
sg18
g13
sg19
S'/usr/share/texmf/fonts/opentype/public/lm/lmmonocaps10-oblique.otf'
p1333
sg21
g22
sbag7
(g8
g9
NtRp1334
(dp1335
g12
g13
sg14
S'Latin Modern Roman'
p1336
sg16
I400
sg17
g13
sg18
g13
sg19
S'/usr/share/texmf/fonts/opentype/public/lm/lmroman10-regular.otf'
p1337
sg21
g22
sbag7
(g8
g9
NtRp1338
(dp1339
g12
g13
sg14
S'eufm10'
p1340
sg16
I400
sg17
g13
sg18
g13
sg19
S'/usr/share/fonts/truetype/lyx/eufm10.ttf'
p1341
sg21
g22
sbag7
(g8
g9
NtRp1342
(dp1343
g12
g13
sg14
S'esint10'
p1344
sg16
I400
sg17
g13
sg18
g13
sg19
S'/usr/share/fonts/truetype/lyx/esint10.ttf'
p1345
sg21
g22
sbag7
(g8
g9
NtRp1346
(dp1347
g12
g13
sg14
S'Latin Modern Roman'
p1348
sg16
I400
sg17
g13
sg18
g13
sg19
S'/usr/share/texmf/fonts/opentype/public/lm/lmroman17-regular.otf'
p1349
sg21
g22
sbag7
(g8
g9
NtRp1350
(dp1351
g12
g13
sg14
S'TeX Gyre Schola'
p1352
sg16
I400
sg17
g13
sg18
g13
sg19
S'/usr/share/texmf/fonts/opentype/public/tex-gyre/texgyreschola-regular.otf'
p1353
sg21
g22
sbag7
(g8
g9
NtRp1354
(dp1355
g12
g33
sg14
S'Latin Modern Roman Demi'
p1356
sg16
I600
sg17
g13
sg18
g13
sg19
S'/usr/share/texmf/fonts/opentype/public/lm/lmromandemi10-oblique.otf'
p1357
sg21
g22
sbag7
(g8
g9
NtRp1358
(dp1359
g12
g13
sg14
S'Droid Sans Georgian'
p1360
sg16
I400
sg17
g13
sg18
g13
sg19
S'/usr/share/fonts/truetype/droid/DroidSansGeorgian.ttf'
p1361
sg21
g22
sbag7
(g8
g9
NtRp1362
(dp1363
g12
g13
sg14
S'Latin Modern Mono Light'
p1364
sg16
I400
sg17
g13
sg18
g13
sg19
S'/usr/share/texmf/fonts/opentype/public/lm/lmmonolt10-regular.otf'
p1365
sg21
g22
sbag7
(g8
g9
NtRp1366
(dp1367
g12
g33
sg14
S'Latin Modern Mono Prop Light'
p1368
sg16
I200
sg17
g13
sg18
g13
sg19
S'/usr/share/texmf/fonts/opentype/public/lm/lmmonoproplt10-oblique.otf'
p1369
sg21
g22
sbag7
(g8
g9
NtRp1370
(dp1371
g12
g13
sg14
S'Latin Modern Roman'
p1372
sg16
I700
sg17
g13
sg18
g13
sg19
S'/usr/share/texmf/fonts/opentype/public/lm/lmroman5-bold.otf'
p1373
sg21
g22
sbag7
(g8
g9
NtRp1374
(dp1375
g12
g13
sg14
S'Padauk'
p1376
sg16
I700
sg17
g13
sg18
g13
sg19
S'/usr/share/fonts/truetype/padauk/Padauk-bold.ttf'
p1377
sg21
g22
sbag7
(g8
g9
NtRp1378
(dp1379
g12
g13
sg14
S'Rekha'
p1380
sg16
I400
sg17
g13
sg18
g13
sg19
S'/usr/share/fonts/truetype/ttf-indic-fonts-core/Rekha.ttf'
p1381
sg21
g22
sbag7
(g8
g9
NtRp1382
(dp1383
g12
g42
sg14
S'EHUSerif'
p1384
sg16
I700
sg17
g13
sg18
g13
sg19
S'/home/alexandre/.fonts/EHUSerif-BoldItalic.otf'
p1385
sg21
g22
sbag7
(g8
g9
NtRp1386
(dp1387
g12
g33
sg14
S'Garuda'
p1388
sg16
I400
sg17
g13
sg18
g13
sg19
S'/usr/share/fonts/truetype/tlwg/Garuda-Oblique.ttf'
p1389
sg21
g22
sbag7
(g8
g9
NtRp1390
(dp1391
g12
g13
sg14
S'Roboto'
p1392
sg16
I200
sg17
g13
sg18
g13
sg19
S'/home/alexandre/.fonts/Roboto-Light.ttf'
p1393
sg21
g22
sbag7
(g8
g9
NtRp1394
(dp1395
g12
g13
sg14
S'OpenSymbol'
p1396
sg16
I400
sg17
g13
sg18
g13
sg19
S'/usr/share/fonts/truetype/openoffice/opens___.ttf'
p1397
sg21
g22
sbag7
(g8
g9
NtRp1398
(dp1399
g12
g13
sg14
S'Latin Modern Roman Slanted'
p1400
sg16
I400
sg17
g13
sg18
g13
sg19
S'/usr/share/texmf/fonts/opentype/public/lm/lmromanslant8-regular.otf'
p1401
sg21
g22
sbag7
(g8
g9
NtRp1402
(dp1403
g12
g42
sg14
S'Roboto'
p1404
sg16
I700
sg17
g232
sg18
g13
sg19
S'/home/alexandre/.fonts/Roboto-BoldCondensedItalic.ttf'
p1405
sg21
g22
sbag7
(g8
g9
NtRp1406
(dp1407
g12
g33
sg14
S'Umpush'
p1408
sg16
I700
sg17
g13
sg18
g13
sg19
S'/usr/share/fonts/truetype/tlwg/Umpush-BoldOblique.ttf'
p1409
sg21
g22
sbag7
(g8
g9
NtRp1410
(dp1411
g12
g42
sg14
S'Droid Serif'
p1412
sg16
I400
sg17
g13
sg18
g13
sg19
S'/usr/share/fonts/truetype/droid/DroidSerif-Italic.ttf'
p1413
sg21
g22
sbag7
(g8
g9
NtRp1414
(dp1415
g12
g13
sg14
S'Tlwg Typo'
p1416
sg16
I700
sg17
g13
sg18
g13
sg19
S'/usr/share/fonts/truetype/tlwg/TlwgTypo-Bold.ttf'
p1417
sg21
g22
sbag7
(g8
g9
NtRp1418
(dp1419
g12
g42
sg14
S'Liberation Serif'
p1420
sg16
I400
sg17
g13
sg18
g13
sg19
S'/usr/share/fonts/truetype/liberation/LiberationSerif-Italic.ttf'
p1421
sg21
g22
sbag7
(g8
g9
NtRp1422
(dp1423
g12
g13
sg14
S'TlwgTypewriter'
p1424
sg16
I700
sg17
g13
sg18
g13
sg19
S'/usr/share/fonts/truetype/tlwg/TlwgTypewriter-Bold.ttf'
p1425
sg21
g22
sbag7
(g8
g9
NtRp1426
(dp1427
g12
g33
sg14
S'Waree'
p1428
sg16
I700
sg17
g13
sg18
g13
sg19
S'/usr/share/fonts/truetype/tlwg/Waree-BoldOblique.ttf'
p1429
sg21
g22
sbag7
(g8
g9
NtRp1430
(dp1431
g12
g13
sg14
S'Waree'
p1432
sg16
I700
sg17
g13
sg18
g13
sg19
S'/usr/share/fonts/truetype/tlwg/Waree-Bold.ttf'
p1433
sg21
g22
sbag7
(g8
g9
NtRp1434
(dp1435
g12
g42
sg14
S'FreeSerif'
p1436
sg16
I700
sg17
g13
sg18
g13
sg19
S'/usr/share/fonts/truetype/freefont/FreeSerifBoldItalic.ttf'
p1437
sg21
g22
sbag7
(g8
g9
NtRp1438
(dp1439
g12
g13
sg14
S'Vemana2000'
p1440
sg16
I400
sg17
g13
sg18
g13
sg19
S'/usr/share/fonts/truetype/ttf-indic-fonts-core/Vemana.ttf'
p1441
sg21
g22
sbag7
(g8
g9
NtRp1442
(dp1443
g12
g13
sg14
S'TG Termes Math'
p1444
sg16
I400
sg17
g13
sg18
g13
sg19
S'/usr/share/texmf/fonts/opentype/public/tex-gyre-math/texgyretermes-math.otf'
p1445
sg21
g22
sbag7
(g8
g9
NtRp1446
(dp1447
g12
g33
sg14
S'Tlwg Typo'
p1448
sg16
I400
sg17
g13
sg18
g13
sg19
S'/usr/share/fonts/truetype/tlwg/TlwgTypo-Oblique.ttf'
p1449
sg21
g22
sbag7
(g8
g9
NtRp1450
(dp1451
g12
g13
sg14
S'Droid Sans'
p1452
sg16
I700
sg17
g13
sg18
g13
sg19
S'/usr/share/fonts/truetype/droid/DroidSans-Bold.ttf'
p1453
sg21
g22
sbag7
(g8
g9
NtRp1454
(dp1455
g12
g13
sg14
S'Latin Modern Mono Prop Light'
p1456
sg16
I700
sg17
g13
sg18
g13
sg19
S'/usr/share/texmf/fonts/opentype/public/lm/lmmonoproplt10-bold.otf'
p1457
sg21
g22
sbag7
(g8
g9
NtRp1458
(dp1459
g12
g42
sg14
S'Roboto'
p1460
sg16
I700
sg17
g13
sg18
g13
sg19
S'/home/alexandre/.fonts/Roboto-BoldItalic.ttf'
p1461
sg21
g22
sbag7
(g8
g9
NtRp1462
(dp1463
g12
g42
sg14
S'Ubuntu'
p1464
sg16
I500
sg17
g13
sg18
g13
sg19
S'/usr/share/fonts/truetype/ubuntu-font-family/Ubuntu-MI.ttf'
p1465
sg21
g22
sbag7
(g8
g9
NtRp1466
(dp1467
g12
g13
sg14
S'Droid Sans Thai'
p1468
sg16
I400
sg17
g13
sg18
g13
sg19
S'/usr/share/fonts/truetype/droid/DroidSansThai.ttf'
p1469
sg21
g22
sbag7
(g8
g9
NtRp1470
(dp1471
g12
g13
sg14
S'Latin Modern Roman Unslanted'
p1472
sg16
I400
sg17
g13
sg18
g13
sg19
S'/usr/share/texmf/fonts/opentype/public/lm/lmromanunsl10-regular.otf'
p1473
sg21
g22
sbag7
(g8
g9
NtRp1474
(dp1475
g12
g33
sg14
S'Latin Modern Sans'
p1476
sg16
I400
sg17
g13
sg18
g13
sg19
S'/usr/share/texmf/fonts/opentype/public/lm/lmsans9-oblique.otf'
p1477
sg21
g22
sbag7
(g8
g9
NtRp1478
(dp1479
g12
g13
sg14
S'KacstTitleL'
p1480
sg16
I400
sg17
g13
sg18
g13
sg19
S'/usr/share/fonts/truetype/kacst/KacstTitleL.ttf'
p1481
sg21
g22
sbag7
(g8
g9
NtRp1482
(dp1483
g12
g13
sg14
S'Bahamas'
p1484
sg16
I400
sg17
g13
sg18
g13
sg19
S'/home/alexandre/.fonts/BAHAMAS0.TTF'
p1485
sg21
g22
sbag7
(g8
g9
NtRp1486
(dp1487
g12
g42
sg14
S'Roboto'
p1488
sg16
I400
sg17
g13
sg18
g13
sg19
S'/home/alexandre/.fonts/Roboto-ThinItalic.ttf'
p1489
sg21
g22
sbag7
(g8
g9
NtRp1490
(dp1491
g12
g13
sg14
S'TeX Gyre Bonum'
p1492
sg16
I400
sg17
g13
sg18
g13
sg19
S'/usr/share/texmf/fonts/opentype/public/tex-gyre/texgyrebonum-regular.otf'
p1493
sg21
g22
sbag7
(g8
g9
NtRp1494
(dp1495
g12
g13
sg14
S'Padauk Book'
p1496
sg16
I400
sg17
g13
sg18
g13
sg19
S'/usr/share/fonts/truetype/padauk/Padauk-book.ttf'
p1497
sg21
g22
sbag7
(g8
g9
NtRp1498
(dp1499
g12
g13
sg14
S'KacstDigital'
p1500
sg16
I400
sg17
g13
sg18
g13
sg19
S'/usr/share/fonts/truetype/kacst/KacstDigital.ttf'
p1501
sg21
g22
sbag7
(g8
g9
NtRp1502
(dp1503
g12
g13
sg14
S'KacstOffice'
p1504
sg16
I400
sg17
g13
sg18
g13
sg19
S'/usr/share/fonts/truetype/kacst/KacstOffice.ttf'
p1505
sg21
g22
sbag7
(g8
g9
NtRp1506
(dp1507
g12
g13
sg14
S'Abyssinica SIL'
p1508
sg16
I400
sg17
g13
sg18
g13
sg19
S'/usr/share/fonts/truetype/abyssinica/AbyssinicaSIL-R.ttf'
p1509
sg21
g22
sbag7
(g8
g9
NtRp1510
(dp1511
g12
g13
sg14
S'Loma'
p1512
sg16
I400
sg17
g13
sg18
g13
sg19
S'/usr/share/fonts/truetype/tlwg/Loma.ttf'
p1513
sg21
g22
sbag7
(g8
g9
NtRp1514
(dp1515
g12
g42
sg14
S'Sansation'
p1516
sg16
I700
sg17
g13
sg18
g13
sg19
S'/home/alexandre/.fonts/Sansation_Bold_Italic.ttf'
p1517
sg21
g22
sbag7
(g8
g9
NtRp1518
(dp1519
g12
g13
sg14
S'Latin Modern Roman'
p1520
sg16
I400
sg17
g13
sg18
g13
sg19
S'/usr/share/texmf/fonts/opentype/public/lm/lmroman9-regular.otf'
p1521
sg21
g22
sbag7
(g8
g9
NtRp1522
(dp1523
g12
g33
sg14
S'Tlwg Typo'
p1524
sg16
I700
sg17
g13
sg18
g13
sg19
S'/usr/share/fonts/truetype/tlwg/TlwgTypo-BoldOblique.ttf'
p1525
sg21
g22
sbag7
(g8
g9
NtRp1526
(dp1527
g12
g42
sg14
S'EHUSerif'
p1528
sg16
I400
sg17
g13
sg18
g13
sg19
S'/home/alexandre/.fonts/EHUSerif-Italic.otf'
p1529
sg21
g22
sbag7
(g8
g9
NtRp1530
(dp1531
g12
g42
sg14
S'Sansation'
p1532
sg16
I400
sg17
g13
sg18
g13
sg19
S'/home/alexandre/.fonts/Sansation_Italic.ttf'
p1533
sg21
g22
sbag7
(g8
g9
NtRp1534
(dp1535
g12
g13
sg14
S'Droid Sans Hebrew'
p1536
sg16
I400
sg17
g13
sg18
g13
sg19
S'/usr/share/fonts/truetype/droid/DroidSansHebrew-Regular.ttf'
p1537
sg21
g22
sbasS'defaultFamily'
p1538
(dp1539
S'afm'
p1540
S'Helvetica'
p1541
sS'ttf'
p1542
S'Bitstream Vera Sans'
p1543
ssS'ttffiles'
p1544
(lp1545
S'/home/alexandre/envs/mypy2/local/lib/python2.7/site-packages/matplotlib/mpl-data/fonts/ttf/STIXNonUniBol.ttf'
p1546
aS'/home/alexandre/envs/mypy2/local/lib/python2.7/site-packages/matplotlib/mpl-data/fonts/ttf/cmb10.ttf'
p1547
aS'/home/alexandre/envs/mypy2/local/lib/python2.7/site-packages/matplotlib/mpl-data/fonts/ttf/cmtt10.ttf'
p1548
aS'/home/alexandre/envs/mypy2/local/lib/python2.7/site-packages/matplotlib/mpl-data/fonts/ttf/VeraIt.ttf'
p1549
aS'/home/alexandre/envs/mypy2/local/lib/python2.7/site-packages/matplotlib/mpl-data/fonts/ttf/cmss10.ttf'
p1550
aS'/home/alexandre/envs/mypy2/local/lib/python2.7/site-packages/matplotlib/mpl-data/fonts/ttf/STIXGeneralBolIta.ttf'
p1551
aS'/home/alexandre/envs/mypy2/local/lib/python2.7/site-packages/matplotlib/mpl-data/fonts/ttf/STIXSizFourSymBol.ttf'
p1552
aS'/home/alexandre/envs/mypy2/local/lib/python2.7/site-packages/matplotlib/mpl-data/fonts/ttf/STIXSizFourSymReg.ttf'
p1553
aS'/home/alexandre/envs/mypy2/local/lib/python2.7/site-packages/matplotlib/mpl-data/fonts/ttf/VeraBI.ttf'
p1554
aS'/home/alexandre/envs/mypy2/local/lib/python2.7/site-packages/matplotlib/mpl-data/fonts/ttf/VeraMoBd.ttf'
p1555
aS'/home/alexandre/envs/mypy2/local/lib/python2.7/site-packages/matplotlib/mpl-data/fonts/ttf/cmr10.ttf'
p1556
aS'/home/alexandre/envs/mypy2/local/lib/python2.7/site-packages/matplotlib/mpl-data/fonts/ttf/VeraMono.ttf'
p1557
aS'/home/alexandre/envs/mypy2/local/lib/python2.7/site-packages/matplotlib/mpl-data/fonts/ttf/STIXSizTwoSymReg.ttf'
p1558
aS'/home/alexandre/envs/mypy2/local/lib/python2.7/site-packages/matplotlib/mpl-data/fonts/ttf/STIXSizThreeSymBol.ttf'
p1559
aS'/home/alexandre/envs/mypy2/local/lib/python2.7/site-packages/matplotlib/mpl-data/fonts/ttf/STIXSizOneSymBol.ttf'
p1560
aS'/home/alexandre/envs/mypy2/local/lib/python2.7/site-packages/matplotlib/mpl-data/fonts/ttf/STIXSizFiveSymReg.ttf'
p1561
aS'/home/alexandre/envs/mypy2/local/lib/python2.7/site-packages/matplotlib/mpl-data/fonts/ttf/VeraMoIt.ttf'
p1562
aS'/home/alexandre/envs/mypy2/local/lib/python2.7/site-packages/matplotlib/mpl-data/fonts/ttf/VeraSeBd.ttf'
p1563
aS'/home/alexandre/envs/mypy2/local/lib/python2.7/site-packages/matplotlib/mpl-data/fonts/ttf/VeraBd.ttf'
p1564
aS'/home/alexandre/envs/mypy2/local/lib/python2.7/site-packages/matplotlib/mpl-data/fonts/ttf/VeraMoBI.ttf'
p1565
aS'/home/alexandre/envs/mypy2/local/lib/python2.7/site-packages/matplotlib/mpl-data/fonts/ttf/STIXNonUniIta.ttf'
p1566
aS'/home/alexandre/envs/mypy2/local/lib/python2.7/site-packages/matplotlib/mpl-data/fonts/ttf/STIXSizTwoSymBol.ttf'
p1567
aS'/home/alexandre/envs/mypy2/local/lib/python2.7/site-packages/matplotlib/mpl-data/fonts/ttf/VeraSe.ttf'
p1568
aS'/home/alexandre/envs/mypy2/local/lib/python2.7/site-packages/matplotlib/mpl-data/fonts/ttf/STIXGeneralBol.ttf'
p1569
aS'/home/alexandre/envs/mypy2/local/lib/python2.7/site-packages/matplotlib/mpl-data/fonts/ttf/Vera.ttf'
p1570
aS'/home/alexandre/envs/mypy2/local/lib/python2.7/site-packages/matplotlib/mpl-data/fonts/ttf/STIXSizOneSymReg.ttf'
p1571
aS'/home/alexandre/envs/mypy2/local/lib/python2.7/site-packages/matplotlib/mpl-data/fonts/ttf/cmex10.ttf'
p1572
aS'/home/alexandre/envs/mypy2/local/lib/python2.7/site-packages/matplotlib/mpl-data/fonts/ttf/cmmi10.ttf'
p1573
aS'/home/alexandre/envs/mypy2/local/lib/python2.7/site-packages/matplotlib/mpl-data/fonts/ttf/STIXGeneral.ttf'
p1574
aS'/home/alexandre/envs/mypy2/local/lib/python2.7/site-packages/matplotlib/mpl-data/fonts/ttf/STIXSizThreeSymReg.ttf'
p1575
aS'/home/alexandre/envs/mypy2/local/lib/python2.7/site-packages/matplotlib/mpl-data/fonts/ttf/STIXNonUni.ttf'
p1576
aS'/home/alexandre/envs/mypy2/local/lib/python2.7/site-packages/matplotlib/mpl-data/fonts/ttf/STIXNonUniBolIta.ttf'
p1577
aS'/home/alexandre/envs/mypy2/local/lib/python2.7/site-packages/matplotlib/mpl-data/fonts/ttf/cmsy10.ttf'
p1578
aS'/home/alexandre/envs/mypy2/local/lib/python2.7/site-packages/matplotlib/mpl-data/fonts/ttf/STIXGeneralItalic.ttf'
p1579
aS'/usr/share/fonts/truetype/droid/DroidSansEthiopic-Bold.ttf'
p1580
aS'/usr/share/texmf/fonts/opentype/public/lm/lmroman8-italic.otf'
p1581
aS'/usr/share/texmf/fonts/opentype/public/lm/lmmonocaps10-regular.otf'
p1582
aS'/home/alexandre/.fonts/EHUSans-Italic.otf'
p1583
aS'/usr/share/fonts/truetype/kacst/KacstScreen.ttf'
p1584
aS'/usr/share/fonts/truetype/kacst/KacstTitle.ttf'
p1585
aS'/usr/share/fonts/truetype/tlwg/Norasi-Oblique.ttf'
p1586
aS'/usr/share/texmf/fonts/opentype/public/lm/lmroman10-italic.otf'
p1587
aS'/home/alexandre/.fonts/BAHAMAHN.TTF'
p1588
aS'/usr/share/fonts/truetype/fonts-japanese-gothic.ttf'
p1589
aS'/usr/share/fonts/truetype/dejavu/DejaVuSerif.ttf'
p1590
aS'/usr/share/fonts/truetype/tlwg/Waree-Oblique.ttf'
p1591
aS'/home/alexandre/.fonts/BAHAMAL0.TTF'
p1592
aS'/usr/share/texmf/fonts/opentype/public/tex-gyre/texgyretermes-bolditalic.otf'
p1593
aS'/usr/share/texmf/fonts/opentype/public/lm/lmroman8-bold.otf'
p1594
aS'/usr/share/texmf/fonts/opentype/public/lm/lmmono10-regular.otf'
p1595
aS'/home/alexandre/.fonts/Roboto-Bold.ttf'
p1596
aS'/home/alexandre/.fonts/Roboto-MediumItalic.ttf'
p1597
aS'/usr/share/fonts/truetype/dejavu/DejaVuSerifCondensed-Bold.ttf'
p1598
aS'/usr/share/texmf/fonts/opentype/public/lm/lmroman12-regular.otf'
p1599
aS'/usr/share/fonts/truetype/tlwg/TlwgTypist.ttf'
p1600
aS'/usr/share/fonts/truetype/nanum/NanumGothic.ttf'
p1601
aS'/usr/share/fonts/truetype/droid/DroidNaskh-Regular.ttf'
p1602
aS'/usr/share/fonts/truetype/liberation/LiberationSans-Italic.ttf'
p1603
aS'/usr/share/fonts/truetype/dejavu/DejaVuSansMono-Oblique.ttf'
p1604
aS'/usr/share/texmf/fonts/opentype/public/lm/lmroman12-bold.otf'
p1605
aS'/usr/share/texmf/fonts/opentype/public/tex-gyre/texgyrecursor-regular.otf'
p1606
aS'/usr/share/fonts/truetype/droid/DroidSansHebrew-Bold.ttf'
p1607
aS'/home/alexandre/.fonts/Roboto-LightItalic.ttf'
p1608
aS'/usr/share/fonts/truetype/droid/DroidNaskh-Bold.ttf'
p1609
aS'/usr/share/fonts/truetype/ubuntu-font-family/UbuntuMono-R.ttf'
p1610
aS'/usr/share/fonts/truetype/tlwg/Loma-Oblique.ttf'
p1611
aS'/usr/share/fonts/truetype/droid/DroidSerif-Regular.ttf'
p1612
aS'/usr/share/texmf/fonts/opentype/public/lm/lmroman5-regular.otf'
p1613
aS'/usr/share/texmf/fonts/opentype/public/lm/lmromanslant12-regular.otf'
p1614
aS'/home/alexandre/.fonts/Roboto-CondensedItalic.ttf'
p1615
aS'/usr/share/texmf/fonts/opentype/public/lm/lmmono10-italic.otf'
p1616
aS'/usr/share/fonts/truetype/kacst/KacstNaskh.ttf'
p1617
aS'/usr/share/fonts/truetype/tlwg/Kinnari-BoldItalic.ttf'
p1618
aS'/usr/share/fonts/truetype/tlwg/Sawasdee.ttf'
p1619
aS'/usr/share/fonts/truetype/dejavu/DejaVuSansMono-BoldOblique.ttf'
p1620
aS'/usr/share/fonts/truetype/freefont/FreeSansBold.ttf'
p1621
aS'/home/alexandre/.fonts/Roboto-Condensed.ttf'
p1622
aS'/usr/share/texmf/fonts/opentype/public/tex-gyre/texgyreheroscn-regular.otf'
p1623
aS'/usr/share/texmf/fonts/opentype/public/lm/lmmono8-regular.otf'
p1624
aS'/usr/share/fonts/truetype/tlwg/Purisa-Bold.ttf'
p1625
aS'/home/alexandre/.fonts/EHUSans-black.otf'
p1626
aS'/usr/share/fonts/truetype/tlwg/TlwgTypist-Bold.ttf'
p1627
aS'/usr/share/texmf/fonts/opentype/public/lm/lmmonoprop10-oblique.otf'
p1628
aS'/usr/share/fonts/truetype/kacst/KacstPoster.ttf'
p1629
aS'/usr/share/fonts/truetype/tlwg/Purisa.ttf'
p1630
aS'/usr/share/fonts/truetype/ubuntu-font-family/Ubuntu-LI.ttf'
p1631
aS'/usr/share/fonts/truetype/droid/DroidSansMono.ttf'
p1632
aS'/usr/share/fonts/truetype/tlwg/Umpush-Oblique.ttf'
p1633
aS'/usr/share/fonts/truetype/nanum/NanumGothicBold.ttf'
p1634
aS'/usr/share/fonts/truetype/liberation/LiberationMono-BoldItalic.ttf'
p1635
aS'/home/alexandre/.fonts/Sansation_Light_Italic.ttf'
p1636
aS'/home/alexandre/.fonts/Comfortaa-Light.ttf'
p1637
aS'/usr/share/fonts/truetype/ubuntu-font-family/UbuntuMono-B.ttf'
p1638
aS'/usr/share/fonts/truetype/lyx/cmsy10.ttf'
p1639
aS'/usr/share/texmf/fonts/opentype/public/tex-gyre/texgyrebonum-bold.otf'
p1640
aS'/usr/share/fonts/truetype/tlwg/Norasi-Italic.ttf'
p1641
aS'/usr/share/fonts/truetype/droid/DroidSansFallbackFull.ttf'
p1642
aS'/usr/share/fonts/truetype/ttf-khmeros-core/KhmerOSsys.ttf'
p1643
aS'/usr/share/fonts/truetype/dejavu/DejaVuSerif-BoldItalic.ttf'
p1644
aS'/usr/share/fonts/truetype/tlwg/TlwgTypist-Oblique.ttf'
p1645
aS'/usr/share/fonts/truetype/tlwg/Norasi.ttf'
p1646
aS'/usr/share/texmf/fonts/opentype/public/lm/lmroman12-italic.otf'
p1647
aS'/usr/share/fonts/truetype/ttf-indic-fonts-core/MuktiNarrowBold.ttf'
p1648
aS'/usr/share/texmf/fonts/opentype/public/lm/lmsans12-regular.otf'
p1649
aS'/usr/share/fonts/truetype/dejavu/DejaVuSans-Bold.ttf'
p1650
aS'/usr/share/fonts/truetype/ubuntu-font-family/Ubuntu-RI.ttf'
p1651
aS'/usr/share/fonts/truetype/nanum/NanumBarunGothic.ttf'
p1652
aS'/usr/share/texmf/fonts/opentype/public/lm/lmroman7-italic.otf'
p1653
aS'/usr/share/texmf/fonts/opentype/public/lm-math/latinmodernmath-regular.otf'
p1654
aS'/usr/share/texmf/fonts/opentype/public/lm/lmroman9-italic.otf'
p1655
aS'/usr/share/fonts/truetype/liberation/LiberationSerif-Regular.ttf'
p1656
aS'/usr/share/fonts/truetype/ttf-indic-fonts-core/lohit_ta.ttf'
p1657
aS'/usr/share/fonts/truetype/tlwg/Kinnari.ttf'
p1658
aS'/usr/share/texmf/fonts/opentype/public/lm/lmsans8-regular.otf'
p1659
aS'/usr/share/fonts/truetype/ubuntu-font-family/UbuntuMono-BI.ttf'
p1660
aS'/usr/share/texmf/fonts/opentype/public/tex-gyre/texgyrepagella-regular.otf'
p1661
aS'/usr/share/fonts/truetype/lyx/cmmi10.ttf'
p1662
aS'/usr/share/texmf/fonts/opentype/public/tex-gyre/texgyrepagella-italic.otf'
p1663
aS'/usr/share/fonts/truetype/tlwg/TlwgMono.ttf'
p1664
aS'/usr/share/texmf/fonts/opentype/public/lm/lmromancaps10-regular.otf'
p1665
aS'/usr/share/texmf/fonts/opentype/public/lm/lmsans17-oblique.otf'
p1666
aS'/usr/share/fonts/truetype/tlwg/Purisa-Oblique.ttf'
p1667
aS'/usr/share/fonts/truetype/tlwg/Kinnari-Italic.ttf'
p1668
aS'/usr/share/fonts/truetype/freefont/FreeMonoBold.ttf'
p1669
aS'/home/alexandre/.fonts/Sansation_Bold.ttf'
p1670
aS'/usr/share/fonts/truetype/ubuntu-font-family/UbuntuMono-RI.ttf'
p1671
aS'/usr/share/fonts/truetype/dejavu/DejaVuSansCondensed-Bold.ttf'
p1672
aS'/usr/share/fonts/truetype/tlwg/TlwgTypewriter-Oblique.ttf'
p1673
aS'/usr/share/texmf/fonts/opentype/public/lm/lmmonoproplt10-boldoblique.otf'
p1674
aS'/home/alexandre/.fonts/EHUSerif-Black.otf'
p1675
aS'/home/alexandre/.fonts/Roboto-Thin.ttf'
p1676
aS'/usr/share/fonts/truetype/ubuntu-font-family/Ubuntu-M.ttf'
p1677
aS'/usr/share/fonts/truetype/tlwg/Garuda-Bold.ttf'
p1678
aS'/home/alexandre/.fonts/EHUSans-Light.otf'
p1679
aS'/usr/share/fonts/truetype/kacst/KacstLetter.ttf'
p1680
aS'/usr/share/fonts/truetype/ubuntu-font-family/Ubuntu-BI.ttf'
p1681
aS'/home/alexandre/.fonts/Comfortaa-Bold.ttf'
p1682
aS'/usr/share/fonts/truetype/ttf-indic-fonts-core/Rachana_04.ttf'
p1683
aS'/usr/share/fonts/truetype/liberation/LiberationSansNarrow-Bold.ttf'
p1684
aS'/usr/share/fonts/truetype/droid/DroidSansArmenian.ttf'
p1685
aS'/usr/share/fonts/truetype/dejavu/DejaVuSansMono-Bold.ttf'
p1686
aS'/home/alexandre/.fonts/Roboto-Black.ttf'
p1687
aS'/usr/share/fonts/truetype/dejavu/DejaVuSansCondensed-Oblique.ttf'
p1688
aS'/usr/share/fonts/truetype/dejavu/DejaVuSans-Oblique.ttf'
p1689
aS'/usr/share/fonts/truetype/nanum/NanumBarunGothicBold.ttf'
p1690
aS'/usr/share/texmf/fonts/opentype/public/tex-gyre/texgyrebonum-bolditalic.otf'
p1691
aS'/usr/share/fonts/truetype/tlwg/TlwgMono-Bold.ttf'
p1692
aS'/usr/share/fonts/truetype/liberation/LiberationMono-Italic.ttf'
p1693
aS'/usr/share/fonts/truetype/liberation/LiberationSerif-BoldItalic.ttf'
p1694
aS'/home/alexandre/.fonts/EHUSerif-Light.otf'
p1695
aS'/usr/share/texmf/fonts/opentype/public/lm/lmmonolt10-bold.otf'
p1696
aS'/usr/share/fonts/truetype/liberation/LiberationSerif-Bold.ttf'
p1697
aS'/usr/share/fonts/truetype/ttf-dejavu/DejaVuSansMono-Bold.ttf'
p1698
aS'/home/alexandre/.fonts/EHUSans-BoldItalic.otf'
p1699
aS'/usr/share/fonts/truetype/ttf-indic-fonts-core/Pothana2000.ttf'
p1700
aS'/usr/share/texmf/fonts/opentype/public/lm/lmmonolt10-boldoblique.otf'
p1701
aS'/usr/share/fonts/truetype/dejavu/DejaVuSerifCondensed.ttf'
p1702
aS'/usr/share/fonts/truetype/ttf-indic-fonts-core/utkal.ttf'
p1703
aS'/usr/share/fonts/truetype/kacst/KacstQurn.ttf'
p1704
aS'/usr/share/fonts/truetype/ttf-indic-fonts-core/MuktiNarrow.ttf'
p1705
aS'/usr/share/texmf/fonts/opentype/public/lm/lmroman6-bold.otf'
p1706
aS'/usr/share/texmf/fonts/opentype/public/tex-gyre/texgyretermes-italic.otf'
p1707
aS'/home/alexandre/.fonts/Roboto-Regular.ttf'
p1708
aS'/usr/share/texmf/fonts/opentype/public/lm/lmmonoprop10-regular.otf'
p1709
aS'/usr/share/fonts/truetype/tlwg/Norasi-Bold.ttf'
p1710
aS'/usr/share/texmf/fonts/opentype/public/tex-gyre/texgyreheros-italic.otf'
p1711
aS'/usr/share/texmf/fonts/opentype/public/tex-gyre/texgyreheroscn-bolditalic.otf'
p1712
aS'/usr/share/fonts/truetype/tlwg/Kinnari-BoldOblique.ttf'
p1713
aS'/usr/share/fonts/truetype/ttf-indic-fonts-core/Malige-n.ttf'
p1714
aS'/usr/share/fonts/truetype/kacst-one/KacstOne.ttf'
p1715
aS'/usr/share/texmf/fonts/opentype/public/lm/lmsans10-boldoblique.otf'
p1716
aS'/usr/share/texmf/fonts/opentype/public/tex-gyre/texgyreschola-bolditalic.otf'
p1717
aS'/usr/share/fonts/truetype/ttf-indic-fonts-core/lohit_bn.ttf'
p1718
aS'/usr/share/texmf/fonts/opentype/public/lm/lmromanslant9-regular.otf'
p1719
aS'/usr/share/texmf/fonts/opentype/public/lm/lmmonoslant10-regular.otf'
p1720
aS'/usr/share/texmf/fonts/opentype/public/lm/lmsansquot8-boldoblique.otf'
p1721
aS'/usr/share/fonts/truetype/ttf-punjabi-fonts/Saab.ttf'
p1722
aS'/usr/share/fonts/truetype/kacst/KacstBook.ttf'
p1723
aS'/usr/share/fonts/truetype/droid/DroidSerif-BoldItalic.ttf'
p1724
aS'/usr/share/texmf/fonts/opentype/public/tex-gyre/texgyreheros-bold.otf'
p1725
aS'/usr/share/fonts/truetype/lyx/wasy10.ttf'
p1726
aS'/home/alexandre/.fonts/Comfortaa-Regular.ttf'
p1727
aS'/home/alexandre/.fonts/EHUSerif-Bold.otf'
p1728
aS'/usr/share/fonts/truetype/dejavu/DejaVuSansCondensed.ttf'
p1729
aS'/home/alexandre/.fonts/Roboto-Medium.ttf'
p1730
aS'/usr/share/fonts/truetype/dejavu/DejaVuSansCondensed-BoldOblique.ttf'
p1731
aS'/usr/share/texmf/fonts/opentype/public/lm/lmroman8-regular.otf'
p1732
aS'/usr/share/fonts/truetype/kacst/KacstDecorative.ttf'
p1733
aS'/usr/share/fonts/truetype/ubuntu-font-family/Ubuntu-B.ttf'
p1734
aS'/usr/share/fonts/truetype/freefont/FreeSansBoldOblique.ttf'
p1735
aS'/usr/share/texmf/fonts/opentype/public/lm/lmsans12-oblique.otf'
p1736
aS'/usr/share/fonts/truetype/liberation/LiberationMono-Bold.ttf'
p1737
aS'/usr/share/fonts/truetype/tlwg/Garuda-BoldOblique.ttf'
p1738
aS'/usr/share/fonts/truetype/padauk/Padauk-bookbold.ttf'
p1739
aS'/home/alexandre/.fonts/EHUSerif-Regular.otf'
p1740
aS'/usr/share/fonts/truetype/freefont/FreeSans.ttf'
p1741
aS'/usr/share/fonts/truetype/nanum/NanumMyeongjoBold.ttf'
p1742
aS'/usr/share/fonts/truetype/tlwg/Kinnari-Oblique.ttf'
p1743
aS'/usr/share/texmf/fonts/opentype/public/tex-gyre/texgyreadventor-bolditalic.otf'
p1744
aS'/usr/share/fonts/truetype/tlwg/Umpush-Light.ttf'
p1745
aS'/usr/share/fonts/truetype/droid/DroidSansEthiopic-Regular.ttf'
p1746
aS'/usr/share/fonts/truetype/tlwg/Purisa-BoldOblique.ttf'
p1747
aS'/usr/share/texmf/fonts/opentype/public/tex-gyre/texgyreheros-regular.otf'
p1748
aS'/usr/share/fonts/truetype/dejavu/DejaVuSans.ttf'
p1749
aS'/usr/share/fonts/truetype/lao/Phetsarath_OT.ttf'
p1750
aS'/usr/share/fonts/truetype/freefont/FreeMonoOblique.ttf'
p1751
aS'/usr/share/fonts/truetype/liberation/LiberationSansNarrow-Regular.ttf'
p1752
aS'/usr/share/texmf/fonts/opentype/public/lm/lmsansquot8-oblique.otf'
p1753
aS'/usr/share/fonts/truetype/tlwg/Sawasdee-Oblique.ttf'
p1754
aS'/usr/share/texmf/fonts/opentype/public/lm/lmroman10-bolditalic.otf'
p1755
aS'/usr/share/fonts/truetype/ttf-khmeros-core/KhmerOS.ttf'
p1756
aS'/usr/share/fonts/truetype/padauk/Padauk.ttf'
p1757
aS'/usr/share/texmf/fonts/opentype/public/tex-gyre/texgyrepagella-bold.otf'
p1758
aS'/usr/share/texmf/fonts/opentype/public/lm/lmmonoproplt10-regular.otf'
p1759
aS'/usr/share/texmf/fonts/opentype/public/tex-gyre/texgyreheroscn-bold.otf'
p1760
aS'/usr/share/fonts/truetype/tlwg/Waree.ttf'
p1761
aS'/usr/share/fonts/truetype/freefont/FreeMono.ttf'
p1762
aS'/usr/share/texmf/fonts/opentype/public/lm/lmmono9-regular.otf'
p1763
aS'/usr/share/texmf/fonts/opentype/public/lm/lmroman10-bold.otf'
p1764
aS'/usr/share/texmf/fonts/opentype/public/lm/lmroman7-regular.otf'
p1765
aS'/usr/share/fonts/truetype/tlwg/Umpush.ttf'
p1766
aS'/usr/share/texmf/fonts/opentype/public/tex-gyre/texgyreheros-bolditalic.otf'
p1767
aS'/usr/share/texmf/fonts/opentype/public/tex-gyre/texgyrecursor-bolditalic.otf'
p1768
aS'/usr/share/texmf/fonts/opentype/public/lm/lmsans10-bold.otf'
p1769
aS'/usr/share/fonts/truetype/ttf-dejavu/DejaVuSansMono.ttf'
p1770
aS'/usr/share/fonts/truetype/ttf-punjabi-fonts/lohit_pa.ttf'
p1771
aS'/home/alexandre/.fonts/Roboto-BlackItalic.ttf'
p1772
aS'/usr/share/fonts/truetype/freefont/FreeSerifBold.ttf'
p1773
aS'/usr/share/texmf/fonts/opentype/public/tex-gyre/texgyreschola-italic.otf'
p1774
aS'/usr/share/fonts/truetype/lyx/msam10.ttf'
p1775
aS'/usr/share/texmf/fonts/opentype/public/tex-gyre/texgyretermes-regular.otf'
p1776
aS'/usr/share/fonts/truetype/sinhala/lklug.ttf'
p1777
aS'/usr/share/fonts/truetype/ttf-indic-fonts-core/lohit_hi.ttf'
p1778
aS'/home/alexandre/.fonts/Sansation_Light.ttf'
p1779
aS'/usr/share/fonts/truetype/ubuntu-font-family/Ubuntu-R.ttf'
p1780
aS'/usr/share/fonts/truetype/dejavu/DejaVuSans-BoldOblique.ttf'
p1781
aS'/usr/share/fonts/truetype/tlwg/TlwgMono-Oblique.ttf'
p1782
aS'/usr/share/texmf/fonts/opentype/public/tex-gyre/texgyrepagella-bolditalic.otf'
p1783
aS'/usr/share/fonts/truetype/lyx/msbm10.ttf'
p1784
aS'/usr/share/fonts/truetype/dejavu/DejaVuSerif-Italic.ttf'
p1785
aS'/usr/share/fonts/truetype/tlwg/TlwgTypist-BoldOblique.ttf'
p1786
aS'/usr/share/fonts/truetype/tlwg/TlwgMono-BoldOblique.ttf'
p1787
aS'/home/alexandre/.fonts/EHUSans-Regular.otf'
p1788
aS'/usr/share/texmf/fonts/opentype/public/tex-gyre-math/texgyrepagella-math.otf'
p1789
aS'/usr/share/fonts/truetype/takao-gothic/TakaoPGothic.ttf'
p1790
aS'/usr/share/fonts/truetype/droid/DroidSans.ttf'
p1791
aS'/usr/share/texmf/fonts/opentype/public/tex-gyre/texgyreheroscn-italic.otf'
p1792
aS'/usr/share/fonts/truetype/ttf-indic-fonts-core/Kedage-b.ttf'
p1793
aS'/usr/share/fonts/truetype/ttf-dejavu/DejaVuSerif-Bold.ttf'
p1794
aS'/usr/share/texmf/fonts/opentype/public/lm/lmmono12-regular.otf'
p1795
aS'/usr/share/fonts/truetype/tlwg/Norasi-BoldItalic.ttf'
p1796
aS'/usr/share/fonts/truetype/tlwg/Umpush-Bold.ttf'
p1797
aS'/usr/share/fonts/truetype/liberation/LiberationSans-BoldItalic.ttf'
p1798
aS'/usr/share/texmf/fonts/opentype/public/tex-gyre/texgyreadventor-bold.otf'
p1799
aS'/usr/share/fonts/truetype/tlwg/Norasi-BoldOblique.ttf'
p1800
aS'/usr/share/texmf/fonts/opentype/public/lm/lmmonoltcond10-regular.otf'
p1801
aS'/usr/share/texmf/fonts/opentype/public/lm/lmromandemi10-regular.otf'
p1802
aS'/usr/share/fonts/truetype/ttf-dejavu/DejaVuSans-Bold.ttf'
p1803
aS'/usr/share/fonts/truetype/ubuntu-font-family/Ubuntu-L.ttf'
p1804
aS'/usr/share/texmf/fonts/opentype/public/lm/lmsansdemicond10-oblique.otf'
p1805
aS'/usr/share/fonts/truetype/dejavu/DejaVuSans-ExtraLight.ttf'
p1806
aS'/usr/share/fonts/truetype/kacst/KacstFarsi.ttf'
p1807
aS'/home/alexandre/.fonts/space-age.ttf'
p1808
aS'/usr/share/texmf/fonts/opentype/public/lm/lmromanslant17-regular.otf'
p1809
aS'/usr/share/texmf/fonts/opentype/public/tex-gyre/texgyrecursor-bold.otf'
p1810
aS'/usr/share/texmf/fonts/opentype/public/tex-gyre/texgyreadventor-regular.otf'
p1811
aS'/usr/share/texmf/fonts/opentype/public/lm/lmmonoltcond10-oblique.otf'
p1812
aS'/usr/share/fonts/truetype/tlwg/Loma-BoldOblique.ttf'
p1813
aS'/usr/share/fonts/truetype/tlwg/TlwgTypewriter.ttf'
p1814
aS'/home/alexandre/.fonts/Roboto-BoldCondensed.ttf'
p1815
aS'/usr/share/texmf/fonts/opentype/public/lm/lmroman7-bold.otf'
p1816
aS'/usr/share/texmf/fonts/opentype/public/tex-gyre/texgyretermes-bold.otf'
p1817
aS'/usr/share/fonts/truetype/ttf-indic-fonts-core/gargi.ttf'
p1818
aS'/usr/share/texmf/fonts/opentype/public/lm/lmroman9-bold.otf'
p1819
aS'/usr/share/texmf/fonts/opentype/public/lm/lmsans8-oblique.otf'
p1820
aS'/usr/share/fonts/truetype/freefont/FreeMonoBoldOblique.ttf'
p1821
aS'/usr/share/texmf/fonts/opentype/public/tex-gyre/texgyreschola-bold.otf'
p1822
aS'/usr/share/fonts/truetype/dejavu/DejaVuSerifCondensed-Italic.ttf'
p1823
aS'/usr/share/fonts/truetype/kacst/KacstArt.ttf'
p1824
aS'/usr/share/fonts/truetype/liberation/LiberationSansNarrow-BoldItalic.ttf'
p1825
aS'/usr/share/texmf/fonts/opentype/public/lm/lmromandunh10-regular.otf'
p1826
aS'/usr/share/fonts/truetype/liberation/LiberationSans-Regular.ttf'
p1827
aS'/usr/share/fonts/truetype/ubuntu-font-family/Ubuntu-C.ttf'
p1828
aS'/usr/share/texmf/fonts/opentype/public/lm/lmsans17-regular.otf'
p1829
aS'/usr/share/fonts/truetype/tlwg/Kinnari-Bold.ttf'
p1830
aS'/home/alexandre/.fonts/BAHAMASB.TTF'
p1831
aS'/usr/share/fonts/truetype/tlwg/TlwgTypewriter-BoldOblique.ttf'
p1832
aS'/usr/share/fonts/truetype/dejavu/DejaVuSerif-Bold.ttf'
p1833
aS'/usr/share/texmf/fonts/opentype/public/tex-gyre/texgyrechorus-mediumitalic.otf'
p1834
aS'/usr/share/fonts/truetype/freefont/FreeSerif.ttf'
p1835
aS'/usr/share/texmf/fonts/opentype/public/lm/lmromanslant10-regular.otf'
p1836
aS'/home/alexandre/.fonts/EHUSans-Bold.otf'
p1837
aS'/usr/share/fonts/truetype/droid/DroidSansJapanese.ttf'
p1838
aS'/usr/share/fonts/truetype/tlwg/Sawasdee-BoldOblique.ttf'
p1839
aS'/usr/share/fonts/truetype/tlwg/Sawasdee-Bold.ttf'
p1840
aS'/usr/share/fonts/truetype/ttf-indic-fonts-core/Kedage-n.ttf'
p1841
aS'/usr/share/fonts/truetype/lyx/cmex10.ttf'
p1842
aS'/usr/share/fonts/truetype/ttf-indic-fonts-core/lohit_gu.ttf'
p1843
aS'/usr/share/texmf/fonts/opentype/public/lm/lmsansquot8-bold.otf'
p1844
aS'/usr/share/fonts/truetype/nanum/NanumMyeongjo.ttf'
p1845
aS'/usr/share/fonts/truetype/tlwg/Loma-Bold.ttf'
p1846
aS'/usr/share/fonts/truetype/kacst/KacstPen.ttf'
p1847
aS'/usr/share/texmf/fonts/opentype/public/lm/lmsansdemicond10-regular.otf'
p1848
aS'/usr/share/fonts/truetype/freefont/FreeSerifItalic.ttf'
p1849
aS'/usr/share/texmf/fonts/opentype/public/lm/lmromanslant10-bold.otf'
p1850
aS'/usr/share/texmf/fonts/opentype/public/lm/lmromancaps10-oblique.otf'
p1851
aS'/usr/share/texmf/fonts/opentype/public/tex-gyre/texgyreadventor-italic.otf'
p1852
aS'/usr/share/fonts/truetype/liberation/LiberationSansNarrow-Italic.ttf'
p1853
aS'/usr/share/fonts/truetype/lyx/cmr10.ttf'
p1854
aS'/usr/share/fonts/truetype/ttf-indic-fonts-core/Malige-b.ttf'
p1855
aS'/usr/share/texmf/fonts/opentype/public/tex-gyre/texgyrecursor-italic.otf'
p1856
aS'/usr/share/texmf/fonts/opentype/public/lm/lmroman6-regular.otf'
p1857
aS'/usr/share/fonts/truetype/dejavu/DejaVuSerifCondensed-BoldItalic.ttf'
p1858
aS'/usr/share/texmf/fonts/opentype/public/lm/lmsans9-regular.otf'
p1859
aS'/usr/share/texmf/fonts/opentype/public/lm/lmmonolt10-oblique.otf'
p1860
aS'/usr/share/fonts/truetype/droid/DroidSerif-Bold.ttf'
p1861
aS'/usr/share/fonts/truetype/ttf-indic-fonts-core/Meera_04.ttf'
p1862
aS'/home/alexandre/.fonts/Roboto-Italic.ttf'
p1863
aS'/usr/share/fonts/truetype/tlwg/Umpush-LightOblique.ttf'
p1864
aS'/usr/share/fonts/truetype/tlwg/TlwgTypo.ttf'
p1865
aS'/usr/share/fonts/truetype/ttf-dejavu/DejaVuSerif.ttf'
p1866
aS'/home/alexandre/.fonts/Sansation_Regular.ttf'
p1867
aS'/usr/share/fonts/truetype/freefont/FreeSansOblique.ttf'
p1868
aS'/usr/share/texmf/fonts/opentype/public/lm/lmromandunh10-oblique.otf'
p1869
aS'/usr/share/fonts/truetype/liberation/LiberationSans-Bold.ttf'
p1870
aS'/usr/share/fonts/truetype/liberation/LiberationMono-Regular.ttf'
p1871
aS'/usr/share/texmf/fonts/opentype/public/tex-gyre/texgyrebonum-italic.otf'
p1872
aS'/usr/share/texmf/fonts/opentype/public/lm/lmsans10-regular.otf'
p1873
aS'/usr/share/fonts/truetype/lyx/rsfs10.ttf'
p1874
aS'/usr/share/fonts/truetype/tlwg/Garuda.ttf'
p1875
aS'/usr/share/fonts/truetype/kacst/mry_KacstQurn.ttf'
p1876
aS'/usr/share/texmf/fonts/opentype/public/lm/lmsans10-oblique.otf'
p1877
aS'/usr/share/fonts/truetype/tibetan-machine/TibetanMachineUni.ttf'
p1878
aS'/usr/share/texmf/fonts/opentype/public/lm/lmsansquot8-regular.otf'
p1879
aS'/usr/share/fonts/truetype/kacst-one/KacstOne-Bold.ttf'
p1880
aS'/usr/share/texmf/fonts/opentype/public/lm/lmmonocaps10-oblique.otf'
p1881
aS'/usr/share/texmf/fonts/opentype/public/lm/lmroman10-regular.otf'
p1882
aS'/usr/share/fonts/truetype/lyx/eufm10.ttf'
p1883
aS'/usr/share/fonts/truetype/lyx/esint10.ttf'
p1884
aS'/usr/share/texmf/fonts/opentype/public/lm/lmroman17-regular.otf'
p1885
aS'/usr/share/texmf/fonts/opentype/public/tex-gyre/texgyreschola-regular.otf'
p1886
aS'/usr/share/texmf/fonts/opentype/public/lm/lmromandemi10-oblique.otf'
p1887
aS'/usr/share/fonts/truetype/ttf-dejavu/DejaVuSans.ttf'
p1888
aS'/usr/share/fonts/truetype/droid/DroidSansGeorgian.ttf'
p1889
aS'/usr/share/texmf/fonts/opentype/public/lm/lmmonolt10-regular.otf'
p1890
aS'/usr/share/texmf/fonts/opentype/public/lm/lmmonoproplt10-oblique.otf'
p1891
aS'/usr/share/texmf/fonts/opentype/public/lm/lmroman5-bold.otf'
p1892
aS'/usr/share/fonts/truetype/padauk/Padauk-bold.ttf'
p1893
aS'/usr/share/fonts/truetype/dejavu/DejaVuSansMono.ttf'
p1894
aS'/usr/share/fonts/truetype/ttf-indic-fonts-core/Rekha.ttf'
p1895
aS'/home/alexandre/.fonts/EHUSerif-BoldItalic.otf'
p1896
aS'/usr/share/fonts/truetype/tlwg/Garuda-Oblique.ttf'
p1897
aS'/home/alexandre/.fonts/Roboto-Light.ttf'
p1898
aS'/usr/share/fonts/truetype/openoffice/opens___.ttf'
p1899
aS'/usr/share/texmf/fonts/opentype/public/lm/lmromanslant8-regular.otf'
p1900
aS'/home/alexandre/.fonts/Roboto-BoldCondensedItalic.ttf'
p1901
aS'/usr/share/fonts/truetype/tlwg/Umpush-BoldOblique.ttf'
p1902
aS'/usr/share/fonts/truetype/droid/DroidSerif-Italic.ttf'
p1903
aS'/usr/share/fonts/truetype/tlwg/TlwgTypo-Bold.ttf'
p1904
aS'/usr/share/fonts/truetype/liberation/LiberationSerif-Italic.ttf'
p1905
aS'/usr/share/fonts/truetype/tlwg/TlwgTypewriter-Bold.ttf'
p1906
aS'/usr/share/fonts/truetype/tlwg/Waree-BoldOblique.ttf'
p1907
aS'/usr/share/fonts/truetype/tlwg/Waree-Bold.ttf'
p1908
aS'/usr/share/fonts/truetype/freefont/FreeSerifBoldItalic.ttf'
p1909
aS'/usr/share/fonts/truetype/ttf-indic-fonts-core/Vemana.ttf'
p1910
aS'/usr/share/texmf/fonts/opentype/public/tex-gyre-math/texgyretermes-math.otf'
p1911
aS'/usr/share/fonts/truetype/tlwg/TlwgTypo-Oblique.ttf'
p1912
aS'/usr/share/fonts/truetype/droid/DroidSans-Bold.ttf'
p1913
aS'/usr/share/texmf/fonts/opentype/public/lm/lmmonoproplt10-bold.otf'
p1914
aS'/home/alexandre/.fonts/Roboto-BoldItalic.ttf'
p1915
aS'/usr/share/fonts/truetype/ubuntu-font-family/Ubuntu-MI.ttf'
p1916
aS'/usr/share/fonts/truetype/droid/DroidSansThai.ttf'
p1917
aS'/usr/share/texmf/fonts/opentype/public/lm/lmromanunsl10-regular.otf'
p1918
aS'/usr/share/texmf/fonts/opentype/public/lm/lmsans9-oblique.otf'
p1919
aS'/usr/share/fonts/truetype/kacst/KacstTitleL.ttf'
p1920
aS'/home/alexandre/.fonts/BAHAMAS0.TTF'
p1921
aS'/home/alexandre/.fonts/Roboto-ThinItalic.ttf'
p1922
aS'/usr/share/texmf/fonts/opentype/public/tex-gyre/texgyrebonum-regular.otf'
p1923
aS'/usr/share/fonts/truetype/padauk/Padauk-book.ttf'
p1924
aS'/usr/share/fonts/truetype/kacst/KacstDigital.ttf'
p1925
aS'/usr/share/fonts/truetype/kacst/KacstOffice.ttf'
p1926
aS'/usr/share/fonts/truetype/abyssinica/AbyssinicaSIL-R.ttf'
p1927
aS'/usr/share/fonts/truetype/tlwg/Loma.ttf'
p1928
aS'/home/alexandre/.fonts/Sansation_Bold_Italic.ttf'
p1929
aS'/usr/share/texmf/fonts/opentype/public/lm/lmroman9-regular.otf'
p1930
aS'/usr/share/fonts/truetype/tlwg/TlwgTypo-BoldOblique.ttf'
p1931
aS'/home/alexandre/.fonts/EHUSerif-Italic.otf'
p1932
aS'/home/alexandre/.fonts/Sansation_Italic.ttf'
p1933
aS'/usr/share/fonts/truetype/droid/DroidSansHebrew-Regular.ttf'
p1934
asS'_FontManager__default_weight'
p1935
g13
sS'_version'
p1936
I101
sS'ttf_lookup_cache'
p1937
(dp1938
sS'default_size'
p1939
NsS'defaultFont'
p1940
(dp1941
g1540
S'/home/alexandre/envs/mypy2/local/lib/python2.7/site-packages/matplotlib/mpl-data/fonts/afm/phvro8an.afm'
p1942
sg1542
g1570
ssS'afmfiles'
p1943
(lp1944
g1942
aS'/home/alexandre/envs/mypy2/local/lib/python2.7/site-packages/matplotlib/mpl-data/fonts/pdfcorefonts/Times-Bold.afm'
p1945
aS'/home/alexandre/envs/mypy2/local/lib/python2.7/site-packages/matplotlib/mpl-data/fonts/afm/phvr8an.afm'
p1946
aS'/home/alexandre/envs/mypy2/local/lib/python2.7/site-packages/matplotlib/mpl-data/fonts/afm/putr8a.afm'
p1947
aS'/home/alexandre/envs/mypy2/local/lib/python2.7/site-packages/matplotlib/mpl-data/fonts/afm/pplb8a.afm'
p1948
aS'/home/alexandre/envs/mypy2/local/lib/python2.7/site-packages/matplotlib/mpl-data/fonts/afm/ptmbi8a.afm'
p1949
aS'/home/alexandre/envs/mypy2/local/lib/python2.7/site-packages/matplotlib/mpl-data/fonts/pdfcorefonts/Times-Italic.afm'
p1950
aS'/home/alexandre/envs/mypy2/local/lib/python2.7/site-packages/matplotlib/mpl-data/fonts/afm/cmex10.afm'
p1951
aS'/home/alexandre/envs/mypy2/local/lib/python2.7/site-packages/matplotlib/mpl-data/fonts/afm/putri8a.afm'
p1952
aS'/home/alexandre/envs/mypy2/local/lib/python2.7/site-packages/matplotlib/mpl-data/fonts/afm/pbkd8a.afm'
p1953
aS'/home/alexandre/envs/mypy2/local/lib/python2.7/site-packages/matplotlib/mpl-data/fonts/afm/pplr8a.afm'
p1954
aS'/home/alexandre/envs/mypy2/local/lib/python2.7/site-packages/matplotlib/mpl-data/fonts/afm/psyr.afm'
p1955
aS'/home/alexandre/envs/mypy2/local/lib/python2.7/site-packages/matplotlib/mpl-data/fonts/pdfcorefonts/Helvetica-Bold.afm'
p1956
aS'/home/alexandre/envs/mypy2/local/lib/python2.7/site-packages/matplotlib/mpl-data/fonts/pdfcorefonts/Symbol.afm'
p1957
aS'/home/alexandre/envs/mypy2/local/lib/python2.7/site-packages/matplotlib/mpl-data/fonts/pdfcorefonts/Helvetica-BoldOblique.afm'
p1958
aS'/home/alexandre/envs/mypy2/local/lib/python2.7/site-packages/matplotlib/mpl-data/fonts/afm/pcrr8a.afm'
p1959
aS'/home/alexandre/envs/mypy2/local/lib/python2.7/site-packages/matplotlib/mpl-data/fonts/afm/pcrbo8a.afm'
p1960
aS'/home/alexandre/envs/mypy2/local/lib/python2.7/site-packages/matplotlib/mpl-data/fonts/afm/pagk8a.afm'
p1961
aS'/home/alexandre/envs/mypy2/local/lib/python2.7/site-packages/matplotlib/mpl-data/fonts/afm/phvro8a.afm'
p1962
aS'/home/alexandre/envs/mypy2/local/lib/python2.7/site-packages/matplotlib/mpl-data/fonts/pdfcorefonts/Courier.afm'
p1963
aS'/home/alexandre/envs/mypy2/local/lib/python2.7/site-packages/matplotlib/mpl-data/fonts/afm/pncbi8a.afm'
p1964
aS'/home/alexandre/envs/mypy2/local/lib/python2.7/site-packages/matplotlib/mpl-data/fonts/afm/cmmi10.afm'
p1965
aS'/home/alexandre/envs/mypy2/local/lib/python2.7/site-packages/matplotlib/mpl-data/fonts/afm/pzcmi8a.afm'
p1966
aS'/home/alexandre/envs/mypy2/local/lib/python2.7/site-packages/matplotlib/mpl-data/fonts/afm/phvbo8a.afm'
p1967
aS'/home/alexandre/envs/mypy2/local/lib/python2.7/site-packages/matplotlib/mpl-data/fonts/afm/phvbo8an.afm'
p1968
aS'/home/alexandre/envs/mypy2/local/lib/python2.7/site-packages/matplotlib/mpl-data/fonts/afm/pcrb8a.afm'
p1969
aS'/home/alexandre/envs/mypy2/local/lib/python2.7/site-packages/matplotlib/mpl-data/fonts/afm/pcrro8a.afm'
p1970
aS'/home/alexandre/envs/mypy2/local/lib/python2.7/site-packages/matplotlib/mpl-data/fonts/afm/pncri8a.afm'
p1971
aS'/home/alexandre/envs/mypy2/local/lib/python2.7/site-packages/matplotlib/mpl-data/fonts/afm/pagd8a.afm'
p1972
aS'/home/alexandre/envs/mypy2/local/lib/python2.7/site-packages/matplotlib/mpl-data/fonts/afm/putbi8a.afm'
p1973
aS'/home/alexandre/envs/mypy2/local/lib/python2.7/site-packages/matplotlib/mpl-data/fonts/pdfcorefonts/Helvetica.afm'
p1974
aS'/home/alexandre/envs/mypy2/local/lib/python2.7/site-packages/matplotlib/mpl-data/fonts/afm/pplri8a.afm'
p1975
aS'/home/alexandre/envs/mypy2/local/lib/python2.7/site-packages/matplotlib/mpl-data/fonts/afm/pncb8a.afm'
p1976
aS'/home/alexandre/envs/mypy2/local/lib/python2.7/site-packages/matplotlib/mpl-data/fonts/pdfcorefonts/Courier-BoldOblique.afm'
p1977
aS'/home/alexandre/envs/mypy2/local/lib/python2.7/site-packages/matplotlib/mpl-data/fonts/pdfcorefonts/Courier-Oblique.afm'
p1978
aS'/home/alexandre/envs/mypy2/local/lib/python2.7/site-packages/matplotlib/mpl-data/fonts/pdfcorefonts/Courier-Bold.afm'
p1979
aS'/home/alexandre/envs/mypy2/local/lib/python2.7/site-packages/matplotlib/mpl-data/fonts/afm/cmsy10.afm'
p1980
aS'/home/alexandre/envs/mypy2/local/lib/python2.7/site-packages/matplotlib/mpl-data/fonts/afm/phvlo8a.afm'
p1981
aS'/home/alexandre/envs/mypy2/local/lib/python2.7/site-packages/matplotlib/mpl-data/fonts/pdfcorefonts/Helvetica-Oblique.afm'
p1982
aS'/home/alexandre/envs/mypy2/local/lib/python2.7/site-packages/matplotlib/mpl-data/fonts/afm/putb8a.afm'
p1983
aS'/home/alexandre/envs/mypy2/local/lib/python2.7/site-packages/matplotlib/mpl-data/fonts/afm/pagko8a.afm'
p1984
aS'/home/alexandre/envs/mypy2/local/lib/python2.7/site-packages/matplotlib/mpl-data/fonts/afm/pagdo8a.afm'
p1985
aS'/home/alexandre/envs/mypy2/local/lib/python2.7/site-packages/matplotlib/mpl-data/fonts/afm/pbkdi8a.afm'
p1986
aS'/home/alexandre/envs/mypy2/local/lib/python2.7/site-packages/matplotlib/mpl-data/fonts/afm/cmtt10.afm'
p1987
aS'/home/alexandre/envs/mypy2/local/lib/python2.7/site-packages/matplotlib/mpl-data/fonts/afm/pplbi8a.afm'
p1988
aS'/home/alexandre/envs/mypy2/local/lib/python2.7/site-packages/matplotlib/mpl-data/fonts/afm/pbkl8a.afm'
p1989
aS'/home/alexandre/envs/mypy2/local/lib/python2.7/site-packages/matplotlib/mpl-data/fonts/afm/pzdr.afm'
p1990
aS'/home/alexandre/envs/mypy2/local/lib/python2.7/site-packages/matplotlib/mpl-data/fonts/afm/phvb8a.afm'
p1991
aS'/home/alexandre/envs/mypy2/local/lib/python2.7/site-packages/matplotlib/mpl-data/fonts/afm/phvb8an.afm'
p1992
aS'/home/alexandre/envs/mypy2/local/lib/python2.7/site-packages/matplotlib/mpl-data/fonts/afm/ptmb8a.afm'
p1993
aS'/home/alexandre/envs/mypy2/local/lib/python2.7/site-packages/matplotlib/mpl-data/fonts/pdfcorefonts/Times-Roman.afm'
p1994
aS'/home/alexandre/envs/mypy2/local/lib/python2.7/site-packages/matplotlib/mpl-data/fonts/afm/pncr8a.afm'
p1995
aS'/home/alexandre/envs/mypy2/local/lib/python2.7/site-packages/matplotlib/mpl-data/fonts/pdfcorefonts/Times-BoldItalic.afm'
p1996
aS'/home/alexandre/envs/mypy2/local/lib/python2.7/site-packages/matplotlib/mpl-data/fonts/afm/ptmri8a.afm'
p1997
aS'/home/alexandre/envs/mypy2/local/lib/python2.7/site-packages/matplotlib/mpl-data/fonts/afm/pbkli8a.afm'
p1998
aS'/home/alexandre/envs/mypy2/local/lib/python2.7/site-packages/matplotlib/mpl-data/fonts/afm/phvr8a.afm'
p1999
aS'/home/alexandre/envs/mypy2/local/lib/python2.7/site-packages/matplotlib/mpl-data/fonts/afm/cmr10.afm'
p2000
aS'/home/alexandre/envs/mypy2/local/lib/python2.7/site-packages/matplotlib/mpl-data/fonts/afm/phvl8a.afm'
p2001
aS'/home/alexandre/envs/mypy2/local/lib/python2.7/site-packages/matplotlib/mpl-data/fonts/afm/ptmr8a.afm'
p2002
aS'/home/alexandre/envs/mypy2/local/lib/python2.7/site-packages/matplotlib/mpl-data/fonts/pdfcorefonts/ZapfDingbats.afm'
p2003
aS'/usr/share/fonts/X11/Type1/lmtt10.afm'
p2004
aS'/usr/share/fonts/X11/Type1/qcsri.afm'
p2005
aS'/usr/share/fonts/X11/Type1/lmssqo8.afm'
p2006
aS'/usr/share/fonts/type1/texlive-fonts-recommended/uhvro8ac.afm'
p2007
aS'/usr/share/fonts/type1/gsfonts/b018015l.afm'
p2008
aS'/usr/share/fonts/X11/Type1/lmbxo10.afm'
p2009
aS'/usr/share/fonts/type1/texlive-fonts-recommended/pcrro8a.afm'
p2010
aS'/usr/share/fonts/type1/texlive-fonts-recommended/uplbi8a.afm'
p2011
aS'/usr/share/fonts/type1/gsfonts/n022024l.afm'
p2012
aS'/usr/share/fonts/X11/Type1/lmtlc10.afm'
p2013
aS'/usr/share/fonts/type1/gsfonts/n019004l.afm'
p2014
aS'/usr/share/fonts/X11/Type1/lmtk10.afm'
p2015
aS'/usr/share/fonts/X11/Type1/qbkr.afm'
p2016
aS'/usr/share/fonts/X11/Type1/lmdunh10.afm'
p2017
aS'/usr/share/fonts/type1/gsfonts/n019003l.afm'
p2018
aS'/usr/share/fonts/type1/texlive-fonts-recommended/ucrro8a.afm'
p2019
aS'/usr/share/fonts/type1/texlive-fonts-recommended/ubkli8a.afm'
p2020
aS'/usr/share/fonts/type1/gsfonts/p052004l.afm'
p2021
aS'/usr/share/fonts/type1/texlive-fonts-recommended/uagk8a.afm'
p2022
aS'/usr/share/fonts/type1/texlive-fonts-recommended/uhvro8a.afm'
p2023
aS'/usr/share/fonts/type1/gsfonts/a010015l.afm'
p2024
aS'/usr/share/fonts/X11/Type1/qcrr.afm'
p2025
aS'/usr/share/fonts/type1/texlive-fonts-recommended/ubkdi8a.afm'
p2026
aS'/usr/share/fonts/type1/gsfonts/c059036l.afm'
p2027
aS'/usr/share/fonts/type1/texlive-fonts-recommended/uncb8a.afm'
p2028
aS'/usr/share/fonts/type1/gsfonts/c059013l.afm'
p2029
aS'/usr/share/fonts/X11/Type1/lmssbx10.afm'
p2030
aS'/usr/share/fonts/X11/Type1/qhvcb.afm'
p2031
aS'/usr/share/fonts/X11/Type1/qtmb.afm'
p2032
aS'/usr/share/fonts/X11/Type1/lmvtlo10.afm'
p2033
aS'/usr/share/fonts/X11/Type1/lmtcso10.afm'
p2034
aS'/usr/share/fonts/X11/Type1/lmtti10.afm'
p2035
aS'/usr/share/fonts/X11/Type1/c0419bt_.afm'
p2036
aS'/usr/share/fonts/type1/gsfonts/n021024l.afm'
p2037
aS'/usr/share/fonts/type1/gsfonts/n019024l.afm'
p2038
aS'/usr/share/fonts/X11/Type1/qhvbi.afm'
p2039
aS'/usr/share/fonts/X11/Type1/qcsb.afm'
p2040
aS'/usr/share/fonts/X11/Type1/lmbx10.afm'
p2041
aS'/usr/share/fonts/type1/gsfonts/d050000l.afm'
p2042
aS'/usr/share/fonts/X11/Type1/lmssdo10.afm'
p2043
aS'/usr/share/fonts/X11/Type1/lmssqbx8.afm'
p2044
aS'/usr/share/fonts/X11/Type1/qhvb.afm'
p2045
aS'/usr/share/fonts/X11/Type1/lmb10.afm'
p2046
aS'/usr/share/fonts/type1/texlive-fonts-recommended/ucrr8a.afm'
p2047
aS'/usr/share/fonts/X11/Type1/c0648bt_.afm'
p2048
aS'/usr/share/fonts/type1/gsfonts/z003034l.afm'
p2049
aS'/usr/share/fonts/X11/Type1/qhvr.afm'
p2050
aS'/usr/share/fonts/X11/Type1/lmbxi10.afm'
p2051
aS'/usr/share/fonts/type1/texlive-fonts-recommended/putb8a.afm'
p2052
aS'/usr/share/fonts/type1/texlive-fonts-recommended/putr8a.afm'
p2053
aS'/usr/share/fonts/type1/gsfonts/b018012l.afm'
p2054
aS'/usr/share/fonts/X11/Type1/lmssbo10.afm'
p2055
aS'/usr/share/fonts/X11/Type1/qplr.afm'
p2056
aS'/usr/share/fonts/type1/texlive-fonts-recommended/uhvbo8a.afm'
p2057
aS'/usr/share/fonts/X11/Type1/qcsr.afm'
p2058
aS'/usr/share/fonts/type1/texlive-fonts-recommended/uplri8a.afm'
p2059
aS'/usr/share/fonts/type1/texlive-fonts-recommended/utmri8a.afm'
p2060
aS'/usr/share/fonts/type1/gsfonts/a010013l.afm'
p2061
aS'/usr/share/fonts/X11/Type1/c0583bt_.afm'
p2062
aS'/usr/share/fonts/type1/texlive-fonts-recommended/ucrb8a.afm'
p2063
aS'/usr/share/fonts/X11/Type1/qagri.afm'
p2064
aS'/usr/share/fonts/X11/Type1/qbkbi.afm'
p2065
aS'/usr/share/fonts/type1/texlive-fonts-recommended/uhvr8ac.afm'
p2066
aS'/usr/share/fonts/type1/texlive-fonts-recommended/bchbi8a.afm'
p2067
aS'/usr/share/fonts/type1/texlive-fonts-recommended/uncbi8a.afm'
p2068
aS'/usr/share/fonts/X11/Type1/lmcsc10.afm'
p2069
aS'/usr/share/fonts/type1/texlive-fonts-recommended/ubkl8a.afm'
p2070
aS'/usr/share/fonts/X11/Type1/qcrbi.afm'
p2071
aS'/usr/share/fonts/X11/Type1/qcrb.afm'
p2072
aS'/usr/share/fonts/X11/Type1/lmssqbo8.afm'
p2073
aS'/usr/share/fonts/type1/gsfonts/p052003l.afm'
p2074
aS'/usr/share/fonts/type1/gsfonts/b018032l.afm'
p2075
aS'/usr/share/fonts/X11/Type1/lmvtk10.afm'
p2076
aS'/usr/share/fonts/type1/gsfonts/n021023l.afm'
p2077
aS'/usr/share/fonts/X11/Type1/qhvri.afm'
p2078
aS'/usr/share/fonts/X11/Type1/lmtlo10.afm'
p2079
aS'/usr/share/fonts/X11/Type1/lmvtl10.afm'
p2080
aS'/usr/share/fonts/type1/gsfonts/n021003l.afm'
p2081
aS'/usr/share/fonts/X11/Type1/lmsso10.afm'
p2082
aS'/usr/share/fonts/type1/texlive-fonts-recommended/uhvbo8ac.afm'
p2083
aS'/usr/share/fonts/type1/gsfonts/s050000l.afm'
p2084
aS'/usr/share/fonts/type1/gsfonts/n021004l.afm'
p2085
aS'/usr/share/fonts/type1/gsfonts/p052024l.afm'
p2086
aS'/usr/share/fonts/X11/Type1/qtmri.afm'
p2087
aS'/usr/share/fonts/type1/texlive-fonts-recommended/uncr8a.afm'
p2088
aS'/usr/share/fonts/X11/Type1/qbkb.afm'
p2089
aS'/usr/share/fonts/type1/texlive-fonts-recommended/putbi8a.afm'
p2090
aS'/usr/share/fonts/type1/gsfonts/n019063l.afm'
p2091
aS'/usr/share/fonts/X11/Type1/qtmr.afm'
p2092
aS'/usr/share/fonts/X11/Type1/lmtcsc10.afm'
p2093
aS'/usr/share/fonts/X11/Type1/lmcsco10.afm'
p2094
aS'/usr/share/fonts/X11/Type1/qagb.afm'
p2095
aS'/usr/share/fonts/X11/Type1/c0633bt_.afm'
p2096
aS'/usr/share/fonts/X11/Type1/lmvtto10.afm'
p2097
aS'/usr/share/fonts/type1/texlive-fonts-recommended/pcrbo8a.afm'
p2098
aS'/usr/share/fonts/X11/Type1/lmss10.afm'
p2099
aS'/usr/share/fonts/X11/Type1/lmvtt10.afm'
p2100
aS'/usr/share/fonts/type1/gsfonts/b018035l.afm'
p2101
aS'/usr/share/fonts/X11/Type1/lmduno10.afm'
p2102
aS'/usr/share/fonts/X11/Type1/qtmbi.afm'
p2103
aS'/usr/share/fonts/X11/Type1/qcsbi.afm'
p2104
aS'/usr/share/fonts/type1/texlive-fonts-recommended/pcrb8a.afm'
p2105
aS'/usr/share/fonts/type1/gsfonts/n022004l.afm'
p2106
aS'/usr/share/fonts/type1/mathml/Symbol.afm'
p2107
aS'/usr/share/fonts/X11/Type1/qhvcbi.afm'
p2108
aS'/usr/share/fonts/type1/texlive-fonts-recommended/utmbi8a.afm'
p2109
aS'/usr/share/fonts/type1/texlive-fonts-recommended/putri8a.afm'
p2110
aS'/usr/share/fonts/type1/texlive-fonts-recommended/uzcmi8a.afm'
p2111
aS'/usr/share/fonts/type1/texlive-fonts-recommended/uagd8a.afm'
p2112
aS'/usr/share/fonts/X11/Type1/lmri10.afm'
p2113
aS'/usr/share/fonts/X11/Type1/Symbol.afm'
p2114
aS'/usr/share/fonts/X11/Type1/lmr10.afm'
p2115
aS'/usr/share/fonts/X11/Type1/c0649bt_.afm'
p2116
aS'/usr/share/fonts/type1/texlive-fonts-recommended/uncri8a.afm'
p2117
aS'/usr/share/fonts/X11/Type1/lmtl10.afm'
p2118
aS'/usr/share/fonts/type1/texlive-fonts-recommended/usyr.afm'
p2119
aS'/usr/share/fonts/type1/texlive-fonts-recommended/uhvr8a.afm'
p2120
aS'/usr/share/fonts/X11/Type1/qplri.afm'
p2121
aS'/usr/share/fonts/X11/Type1/qagbi.afm'
p2122
aS'/usr/share/fonts/X11/Type1/qhvcr.afm'
p2123
aS'/usr/share/fonts/X11/Type1/lmtlco10.afm'
p2124
aS'/usr/share/fonts/type1/gsfonts/c059016l.afm'
p2125
aS'/usr/share/fonts/X11/Type1/qplb.afm'
p2126
aS'/usr/share/fonts/type1/gsfonts/n019044l.afm'
p2127
aS'/usr/share/fonts/type1/gsfonts/n022003l.afm'
p2128
aS'/usr/share/fonts/type1/gsfonts/a010033l.afm'
p2129
aS'/usr/share/fonts/X11/Type1/lmvtko10.afm'
p2130
aS'/usr/share/fonts/type1/texlive-fonts-recommended/bchri8a.afm'
p2131
aS'/usr/share/fonts/type1/texlive-fonts-recommended/bchb8a.afm'
p2132
aS'/usr/share/fonts/type1/gsfonts/n019043l.afm'
p2133
aS'/usr/share/fonts/type1/texlive-fonts-recommended/uplb8a.afm'
p2134
aS'/usr/share/fonts/X11/Type1/qcrri.afm'
p2135
aS'/usr/share/fonts/type1/texlive-fonts-recommended/ucrbo8a.afm'
p2136
aS'/usr/share/fonts/type1/gsfonts/n019064l.afm'
p2137
aS'/usr/share/fonts/type1/texlive-fonts-recommended/ubkd8a.afm'
p2138
aS'/usr/share/fonts/type1/texlive-fonts-recommended/uagko8a.afm'
p2139
aS'/usr/share/fonts/type1/texlive-fonts-recommended/uplr8a.afm'
p2140
aS'/usr/share/fonts/type1/texlive-fonts-recommended/uhvb8ac.afm'
p2141
aS'/usr/share/fonts/X11/Type1/c0582bt_.afm'
p2142
aS'/usr/share/fonts/type1/texlive-fonts-recommended/utmb8a.afm'
p2143
aS'/usr/share/fonts/type1/texlive-fonts-recommended/uhvb8a.afm'
p2144
aS'/usr/share/fonts/X11/Type1/lmssq8.afm'
p2145
aS'/usr/share/fonts/X11/Type1/lmro10.afm'
p2146
aS'/usr/share/fonts/type1/texlive-fonts-recommended/pcrr8a.afm'
p2147
aS'/usr/share/fonts/X11/Type1/qagr.afm'
p2148
aS'/usr/share/fonts/type1/gsfonts/c059033l.afm'
p2149
aS'/usr/share/fonts/type1/texlive-fonts-recommended/utmr8a.afm'
p2150
aS'/usr/share/fonts/type1/texlive-fonts-recommended/bchr8a.afm'
p2151
aS'/usr/share/fonts/type1/gsfonts/n019023l.afm'
p2152
aS'/usr/share/fonts/X11/Type1/lmtko10.afm'
p2153
aS'/usr/share/fonts/X11/Type1/qzcmi.afm'
p2154
aS'/usr/share/fonts/X11/Type1/c0611bt_.afm'
p2155
aS'/usr/share/fonts/X11/Type1/lmbo10.afm'
p2156
aS'/usr/share/fonts/type1/gsfonts/p052023l.afm'
p2157
aS'/usr/share/fonts/X11/Type1/qplbi.afm'
p2158
aS'/usr/share/fonts/type1/texlive-fonts-recommended/uagdo8a.afm'
p2159
aS'/usr/share/fonts/X11/Type1/lmssdc10.afm'
p2160
aS'/usr/share/fonts/X11/Type1/lmtto10.afm'
p2161
aS'/usr/share/fonts/type1/gsfonts/n022023l.afm'
p2162
aS'/usr/share/fonts/X11/Type1/qhvcri.afm'
p2163
aS'/usr/share/fonts/type1/gsfonts/a010035l.afm'
p2164
aS'/usr/share/fonts/X11/Type1/qbkri.afm'
p2165
aS'/usr/share/fonts/type1/texlive-fonts-recommended/uzdr.afm'
p2166
aS'/usr/share/fonts/X11/Type1/c0632bt_.afm'
p2167
aS'/usr/share/fonts/X11/Type1/lmu10.afm'
p2168
asS'afmlist'
p2169
(lp2170
g7
(g8
g9
NtRp2171
(dp2172
g12
g42
sg14
S'Helvetica'
p2173
sg16
I500
sg17
g232
sg18
g13
sg19
g1942
sg21
g22
sbag7
(g8
g9
NtRp2174
(dp2175
g12
g13
sg14
S'Times'
p2176
sg16
I700
sg17
g13
sg18
g13
sg19
g1945
sg21
g22
sbag7
(g8
g9
NtRp2177
(dp2178
g12
g13
sg14
S'Helvetica'
p2179
sg16
I500
sg17
g232
sg18
g13
sg19
g1946
sg21
g22
sbag7
(g8
g9
NtRp2180
(dp2181
g12
g13
sg14
S'Utopia'
p2182
sg16
I400
sg17
g13
sg18
g13
sg19
g1947
sg21
g22
sbag7
(g8
g9
NtRp2183
(dp2184
g12
g13
sg14
S'Palatino'
p2185
sg16
I700
sg17
g13
sg18
g13
sg19
g1948
sg21
g22
sbag7
(g8
g9
NtRp2186
(dp2187
g12
g42
sg14
S'Times'
p2188
sg16
I700
sg17
g13
sg18
g13
sg19
g1949
sg21
g22
sbag7
(g8
g9
NtRp2189
(dp2190
g12
g42
sg14
S'Times'
p2191
sg16
I500
sg17
g13
sg18
g13
sg19
g1950
sg21
g22
sbag7
(g8
g9
NtRp2192
(dp2193
g12
g13
sg14
S'Computer Modern'
p2194
sg16
I500
sg17
g13
sg18
g13
sg19
g1951
sg21
g22
sbag7
(g8
g9
NtRp2195
(dp2196
g12
g42
sg14
S'Utopia'
p2197
sg16
I400
sg17
g13
sg18
g13
sg19
g1952
sg21
g22
sbag7
(g8
g9
NtRp2198
(dp2199
g12
g13
sg14
S'ITC Bookman'
p2200
sg16
I600
sg17
g13
sg18
g13
sg19
g1953
sg21
g22
sbag7
(g8
g9
NtRp2201
(dp2202
g12
g13
sg14
S'Palatino'
p2203
sg16
I500
sg17
g13
sg18
g13
sg19
g1954
sg21
g22
sbag7
(g8
g9
NtRp2204
(dp2205
g12
g13
sg14
S'Symbol'
p2206
sg16
I500
sg17
g13
sg18
g13
sg19
g1955
sg21
g22
sbag7
(g8
g9
NtRp2207
(dp2208
g12
g13
sg14
S'Helvetica'
p2209
sg16
I700
sg17
g13
sg18
g13
sg19
g1956
sg21
g22
sbag7
(g8
g9
NtRp2210
(dp2211
g12
g13
sg14
S'Symbol'
p2212
sg16
I500
sg17
g13
sg18
g13
sg19
g1957
sg21
g22
sbag7
(g8
g9
NtRp2213
(dp2214
g12
g42
sg14
S'Helvetica'
p2215
sg16
I700
sg17
g13
sg18
g13
sg19
g1958
sg21
g22
sbag7
(g8
g9
NtRp2216
(dp2217
g12
g13
sg14
S'Courier'
p2218
sg16
I500
sg17
g13
sg18
g13
sg19
g1959
sg21
g22
sbag7
(g8
g9
NtRp2219
(dp2220
g12
g42
sg14
S'Courier'
p2221
sg16
I700
sg17
g13
sg18
g13
sg19
g1960
sg21
g22
sbag7
(g8
g9
NtRp2222
(dp2223
g12
g13
sg14
S'ITC Avant Garde Gothic'
p2224
sg16
I400
sg17
g13
sg18
g13
sg19
g1961
sg21
g22
sbag7
(g8
g9
NtRp2225
(dp2226
g12
g42
sg14
S'Helvetica'
p2227
sg16
I500
sg17
g13
sg18
g13
sg19
g1962
sg21
g22
sbag7
(g8
g9
NtRp2228
(dp2229
g12
g13
sg14
S'Courier'
p2230
sg16
I500
sg17
g13
sg18
g13
sg19
g1963
sg21
g22
sbag7
(g8
g9
NtRp2231
(dp2232
g12
g42
sg14
S'New Century Schoolbook'
p2233
sg16
I700
sg17
g13
sg18
g13
sg19
g1964
sg21
g22
sbag7
(g8
g9
NtRp2234
(dp2235
g12
g42
sg14
S'Computer Modern'
p2236
sg16
I500
sg17
g13
sg18
g13
sg19
g1965
sg21
g22
sbag7
(g8
g9
NtRp2237
(dp2238
g12
g42
sg14
S'ITC Zapf Chancery'
p2239
sg16
I500
sg17
g13
sg18
g13
sg19
g1966
sg21
g22
sbag7
(g8
g9
NtRp2240
(dp2241
g12
g42
sg14
S'Helvetica'
p2242
sg16
I700
sg17
g13
sg18
g13
sg19
g1967
sg21
g22
sbag7
(g8
g9
NtRp2243
(dp2244
g12
g42
sg14
S'Helvetica'
p2245
sg16
I700
sg17
g232
sg18
g13
sg19
g1968
sg21
g22
sbag7
(g8
g9
NtRp2246
(dp2247
g12
g13
sg14
S'Courier'
p2248
sg16
I700
sg17
g13
sg18
g13
sg19
g1969
sg21
g22
sbag7
(g8
g9
NtRp2249
(dp2250
g12
g42
sg14
S'Courier'
p2251
sg16
I500
sg17
g13
sg18
g13
sg19
g1970
sg21
g22
sbag7
(g8
g9
NtRp2252
(dp2253
g12
g42
sg14
S'New Century Schoolbook'
p2254
sg16
I500
sg17
g13
sg18
g13
sg19
g1971
sg21
g22
sbag7
(g8
g9
NtRp2255
(dp2256
g12
g13
sg14
S'ITC Avant Garde Gothic'
p2257
sg16
I600
sg17
g13
sg18
g13
sg19
g1972
sg21
g22
sbag7
(g8
g9
NtRp2258
(dp2259
g12
g42
sg14
S'Utopia'
p2260
sg16
I700
sg17
g13
sg18
g13
sg19
g1973
sg21
g22
sbag7
(g8
g9
NtRp2261
(dp2262
g12
g13
sg14
S'Helvetica'
p2263
sg16
I500
sg17
g13
sg18
g13
sg19
g1974
sg21
g22
sbag7
(g8
g9
NtRp2264
(dp2265
g12
g42
sg14
S'Palatino'
p2266
sg16
I500
sg17
g13
sg18
g13
sg19
g1975
sg21
g22
sbag7
(g8
g9
NtRp2267
(dp2268
g12
g13
sg14
S'New Century Schoolbook'
p2269
sg16
I700
sg17
g13
sg18
g13
sg19
g1976
sg21
g22
sbag7
(g8
g9
NtRp2270
(dp2271
g12
g42
sg14
S'Courier'
p2272
sg16
I700
sg17
g13
sg18
g13
sg19
g1977
sg21
g22
sbag7
(g8
g9
NtRp2273
(dp2274
g12
g42
sg14
S'Courier'
p2275
sg16
I500
sg17
g13
sg18
g13
sg19
g1978
sg21
g22
sbag7
(g8
g9
NtRp2276
(dp2277
g12
g13
sg14
S'Courier'
p2278
sg16
I700
sg17
g13
sg18
g13
sg19
g1979
sg21
g22
sbag7
(g8
g9
NtRp2279
(dp2280
g12
g42
sg14
S'Computer Modern'
p2281
sg16
I500
sg17
g13
sg18
g13
sg19
g1980
sg21
g22
sbag7
(g8
g9
NtRp2282
(dp2283
g12
g42
sg14
S'Helvetica'
p2284
sg16
I200
sg17
g13
sg18
g13
sg19
g1981
sg21
g22
sbag7
(g8
g9
NtRp2285
(dp2286
g12
g42
sg14
S'Helvetica'
p2287
sg16
I500
sg17
g13
sg18
g13
sg19
g1982
sg21
g22
sbag7
(g8
g9
NtRp2288
(dp2289
g12
g13
sg14
S'Utopia'
p2290
sg16
I700
sg17
g13
sg18
g13
sg19
g1983
sg21
g22
sbag7
(g8
g9
NtRp2291
(dp2292
g12
g42
sg14
S'ITC Avant Garde Gothic'
p2293
sg16
I400
sg17
g13
sg18
g13
sg19
g1984
sg21
g22
sbag7
(g8
g9
NtRp2294
(dp2295
g12
g42
sg14
S'ITC Avant Garde Gothic'
p2296
sg16
I600
sg17
g13
sg18
g13
sg19
g1985
sg21
g22
sbag7
(g8
g9
NtRp2297
(dp2298
g12
g42
sg14
S'ITC Bookman'
p2299
sg16
I600
sg17
g13
sg18
g13
sg19
g1986
sg21
g22
sbag7
(g8
g9
NtRp2300
(dp2301
g12
g13
sg14
S'Computer Modern'
p2302
sg16
I500
sg17
g13
sg18
g13
sg19
g1987
sg21
g22
sbag7
(g8
g9
NtRp2303
(dp2304
g12
g42
sg14
S'Palatino'
p2305
sg16
I700
sg17
g13
sg18
g13
sg19
g1988
sg21
g22
sbag7
(g8
g9
NtRp2306
(dp2307
g12
g13
sg14
S'ITC Bookman'
p2308
sg16
I200
sg17
g13
sg18
g13
sg19
g1989
sg21
g22
sbag7
(g8
g9
NtRp2309
(dp2310
g12
g13
sg14
S'ITC Zapf Dingbats'
p2311
sg16
I500
sg17
g13
sg18
g13
sg19
g1990
sg21
g22
sbag7
(g8
g9
NtRp2312
(dp2313
g12
g13
sg14
S'Helvetica'
p2314
sg16
I700
sg17
g13
sg18
g13
sg19
g1991
sg21
g22
sbag7
(g8
g9
NtRp2315
(dp2316
g12
g13
sg14
S'Helvetica'
p2317
sg16
I700
sg17
g232
sg18
g13
sg19
g1992
sg21
g22
sbag7
(g8
g9
NtRp2318
(dp2319
g12
g13
sg14
S'Times'
p2320
sg16
I700
sg17
g13
sg18
g13
sg19
g1993
sg21
g22
sbag7
(g8
g9
NtRp2321
(dp2322
g12
g13
sg14
S'Times'
p2323
sg16
I500
sg17
g13
sg18
g13
sg19
g1994
sg21
g22
sbag7
(g8
g9
NtRp2324
(dp2325
g12
g13
sg14
S'New Century Schoolbook'
p2326
sg16
I500
sg17
g13
sg18
g13
sg19
g1995
sg21
g22
sbag7
(g8
g9
NtRp2327
(dp2328
g12
g42
sg14
S'Times'
p2329
sg16
I700
sg17
g13
sg18
g13
sg19
g1996
sg21
g22
sbag7
(g8
g9
NtRp2330
(dp2331
g12
g42
sg14
S'Times'
p2332
sg16
I500
sg17
g13
sg18
g13
sg19
g1997
sg21
g22
sbag7
(g8
g9
NtRp2333
(dp2334
g12
g42
sg14
S'ITC Bookman'
p2335
sg16
I200
sg17
g13
sg18
g13
sg19
g1998
sg21
g22
sbag7
(g8
g9
NtRp2336
(dp2337
g12
g13
sg14
S'Helvetica'
p2338
sg16
I500
sg17
g13
sg18
g13
sg19
g1999
sg21
g22
sbag7
(g8
g9
NtRp2339
(dp2340
g12
g13
sg14
S'Computer Modern'
p2341
sg16
I500
sg17
g13
sg18
g13
sg19
g2000
sg21
g22
sbag7
(g8
g9
NtRp2342
(dp2343
g12
g13
sg14
S'Helvetica'
p2344
sg16
I200
sg17
g13
sg18
g13
sg19
g2001
sg21
g22
sbag7
(g8
g9
NtRp2345
(dp2346
g12
g13
sg14
S'Times'
p2347
sg16
I500
sg17
g13
sg18
g13
sg19
g2002
sg21
g22
sbag7
(g8
g9
NtRp2348
(dp2349
g12
g13
sg14
S'ZapfDingbats'
p2350
sg16
I500
sg17
g13
sg18
g13
sg19
g2003
sg21
g22
sbag7
(g8
g9
NtRp2351
(dp2352
g12
g13
sg14
S'LMMono10'
p2353
sg16
I400
sg17
g13
sg18
g13
sg19
g2004
sg21
g22
sbag7
(g8
g9
NtRp2354
(dp2355
g12
g42
sg14
S'TeXGyreSchola'
p2356
sg16
I400
sg17
g13
sg18
g13
sg19
g2005
sg21
g22
sbag7
(g8
g9
NtRp2357
(dp2358
g12
g42
sg14
S'LMSansQuot8'
p2359
sg16
I400
sg17
g13
sg18
g13
sg19
g2006
sg21
g22
sbag7
(g8
g9
NtRp2360
(dp2361
g12
g42
sg14
S'Nimbus Sans L'
p2362
sg16
I400
sg17
g232
sg18
g13
sg19
g2007
sg21
g22
sbag7
(g8
g9
NtRp2363
(dp2364
g12
g13
sg14
S'URW Bookman L'
p2365
sg16
I700
sg17
g13
sg18
g13
sg19
g2008
sg21
g22
sbag7
(g8
g9
NtRp2366
(dp2367
g12
g42
sg14
S'LMRomanSlant10'
p2368
sg16
I700
sg17
g13
sg18
g13
sg19
g2009
sg21
g22
sbag7
(g8
g9
NtRp2369
(dp2370
g12
g42
sg14
S'URW Palladio L'
p2371
sg16
I700
sg17
g13
sg18
g13
sg19
g2011
sg21
g22
sbag7
(g8
g9
NtRp2372
(dp2373
g12
g42
sg14
S'Nimbus Mono L'
p2374
sg16
I700
sg17
g13
sg18
g13
sg19
g2012
sg21
g22
sbag7
(g8
g9
NtRp2375
(dp2376
g12
g13
sg14
S'LMMonoLtCond10'
p2377
sg16
I200
sg17
g232
sg18
g13
sg19
g2013
sg21
g22
sbag7
(g8
g9
NtRp2378
(dp2379
g12
g13
sg14
S'Nimbus Sans L'
p2380
sg16
I700
sg17
g13
sg18
g13
sg19
g2014
sg21
g22
sbag7
(g8
g9
NtRp2381
(dp2382
g12
g13
sg14
S'LMMonoLt10'
p2383
sg16
I700
sg17
g13
sg18
g13
sg19
g2015
sg21
g22
sbag7
(g8
g9
NtRp2384
(dp2385
g12
g13
sg14
S'TeXGyreBonum'
p2386
sg16
I400
sg17
g13
sg18
g13
sg19
g2016
sg21
g22
sbag7
(g8
g9
NtRp2387
(dp2388
g12
g13
sg14
S'LMRomanDunh10'
p2389
sg16
I400
sg17
g13
sg18
g13
sg19
g2017
sg21
g22
sbag7
(g8
g9
NtRp2390
(dp2391
g12
g13
sg14
S'Nimbus Sans L'
p2392
sg16
I400
sg17
g13
sg18
g13
sg19
g2018
sg21
g22
sbag7
(g8
g9
NtRp2393
(dp2394
g12
g42
sg14
S'Nimbus Mono L'
p2395
sg16
I400
sg17
g13
sg18
g13
sg19
g2019
sg21
g22
sbag7
(g8
g9
NtRp2396
(dp2397
g12
g42
sg14
S'URW Bookman L'
p2398
sg16
I400
sg17
g13
sg18
g13
sg19
g2020
sg21
g22
sbag7
(g8
g9
NtRp2399
(dp2400
g12
g13
sg14
S'URW Palladio L'
p2401
sg16
I700
sg17
g13
sg18
g13
sg19
g2021
sg21
g22
sbag7
(g8
g9
NtRp2402
(dp2403
g12
g13
sg14
S'URW Gothic L'
p2404
sg16
I400
sg17
g13
sg18
g13
sg19
g2022
sg21
g22
sbag7
(g8
g9
NtRp2405
(dp2406
g12
g42
sg14
S'Nimbus Sans L'
p2407
sg16
I400
sg17
g13
sg18
g13
sg19
g2023
sg21
g22
sbag7
(g8
g9
NtRp2408
(dp2409
g12
g13
sg14
S'URW Gothic L'
p2410
sg16
I600
sg17
g13
sg18
g13
sg19
g2024
sg21
g22
sbag7
(g8
g9
NtRp2411
(dp2412
g12
g13
sg14
S'TeXGyreCursor'
p2413
sg16
I400
sg17
g13
sg18
g13
sg19
g2025
sg21
g22
sbag7
(g8
g9
NtRp2414
(dp2415
g12
g42
sg14
S'URW Bookman L'
p2416
sg16
I700
sg17
g13
sg18
g13
sg19
g2026
sg21
g22
sbag7
(g8
g9
NtRp2417
(dp2418
g12
g42
sg14
S'Century Schoolbook L'
p2419
sg16
I700
sg17
g13
sg18
g13
sg19
g2027
sg21
g22
sbag7
(g8
g9
NtRp2420
(dp2421
g12
g13
sg14
S'Century Schoolbook L'
p2422
sg16
I700
sg17
g13
sg18
g13
sg19
g2028
sg21
g22
sbag7
(g8
g9
NtRp2423
(dp2424
g12
g13
sg14
S'Century Schoolbook L'
p2425
sg16
I500
sg17
g13
sg18
g13
sg19
g2029
sg21
g22
sbag7
(g8
g9
NtRp2426
(dp2427
g12
g13
sg14
S'LMSans10'
p2428
sg16
I700
sg17
g13
sg18
g13
sg19
g2030
sg21
g22
sbag7
(g8
g9
NtRp2429
(dp2430
g12
g13
sg14
S'TeXGyreHerosCondensed'
p2431
sg16
I700
sg17
g232
sg18
g13
sg19
g2031
sg21
g22
sbag7
(g8
g9
NtRp2432
(dp2433
g12
g13
sg14
S'TeXGyreTermes'
p2434
sg16
I700
sg17
g13
sg18
g13
sg19
g2032
sg21
g22
sbag7
(g8
g9
NtRp2435
(dp2436
g12
g42
sg14
S'LMMonoPropLt10'
p2437
sg16
I200
sg17
g13
sg18
g13
sg19
g2033
sg21
g22
sbag7
(g8
g9
NtRp2438
(dp2439
g12
g42
sg14
S'LMMonoCaps10'
p2440
sg16
I400
sg17
g13
sg18
g13
sg19
g2034
sg21
g22
sbag7
(g8
g9
NtRp2441
(dp2442
g12
g42
sg14
S'LMMono10'
p2443
sg16
I400
sg17
g13
sg18
g13
sg19
g2035
sg21
g22
sbag7
(g8
g9
NtRp2444
(dp2445
g12
g13
sg14
S'Courier 10 Pitch'
p2446
sg16
I400
sg17
g13
sg18
g13
sg19
g2036
sg21
g22
sbag7
(g8
g9
NtRp2447
(dp2448
g12
g42
sg14
S'Nimbus Roman No9 L'
p2449
sg16
I700
sg17
g13
sg18
g13
sg19
g2037
sg21
g22
sbag7
(g8
g9
NtRp2450
(dp2451
g12
g42
sg14
S'Nimbus Sans L'
p2452
sg16
I700
sg17
g13
sg18
g13
sg19
g2038
sg21
g22
sbag7
(g8
g9
NtRp2453
(dp2454
g12
g42
sg14
S'TeXGyreHeros'
p2455
sg16
I700
sg17
g13
sg18
g13
sg19
g2039
sg21
g22
sbag7
(g8
g9
NtRp2456
(dp2457
g12
g13
sg14
S'TeXGyreSchola'
p2458
sg16
I700
sg17
g13
sg18
g13
sg19
g2040
sg21
g22
sbag7
(g8
g9
NtRp2459
(dp2460
g12
g13
sg14
S'LMRoman10'
p2461
sg16
I700
sg17
g13
sg18
g13
sg19
g2041
sg21
g22
sbag7
(g8
g9
NtRp2462
(dp2463
g12
g13
sg14
S'Dingbats'
p2464
sg16
I400
sg17
g13
sg18
g13
sg19
g2042
sg21
g22
sbag7
(g8
g9
NtRp2465
(dp2466
g12
g42
sg14
S'LMSansDemiCond10'
p2467
sg16
I600
sg17
g232
sg18
g13
sg19
g2043
sg21
g22
sbag7
(g8
g9
NtRp2468
(dp2469
g12
g13
sg14
S'LMSansQuot8'
p2470
sg16
I700
sg17
g13
sg18
g13
sg19
g2044
sg21
g22
sbag7
(g8
g9
NtRp2471
(dp2472
g12
g13
sg14
S'TeXGyreHeros'
p2473
sg16
I700
sg17
g13
sg18
g13
sg19
g2045
sg21
g22
sbag7
(g8
g9
NtRp2474
(dp2475
g12
g13
sg14
S'LMRomanDemi10'
p2476
sg16
I600
sg17
g13
sg18
g13
sg19
g2046
sg21
g22
sbag7
(g8
g9
NtRp2477
(dp2478
g12
g13
sg14
S'Nimbus Mono L'
p2479
sg16
I400
sg17
g13
sg18
g13
sg19
g2047
sg21
g22
sbag7
(g8
g9
NtRp2480
(dp2481
g12
g13
sg14
S'Bitstream Charter'
p2482
sg16
I400
sg17
g13
sg18
g13
sg19
g2048
sg21
g22
sbag7
(g8
g9
NtRp2483
(dp2484
g12
g42
sg14
S'URW Chancery L'
p2485
sg16
I500
sg17
g13
sg18
g13
sg19
g2049
sg21
g22
sbag7
(g8
g9
NtRp2486
(dp2487
g12
g13
sg14
S'TeXGyreHeros'
p2488
sg16
I400
sg17
g13
sg18
g13
sg19
g2050
sg21
g22
sbag7
(g8
g9
NtRp2489
(dp2490
g12
g42
sg14
S'LMRoman10'
p2491
sg16
I700
sg17
g13
sg18
g13
sg19
g2051
sg21
g22
sbag7
(g8
g9
NtRp2492
(dp2493
g12
g13
sg14
S'URW Bookman L'
p2494
sg16
I400
sg17
g13
sg18
g13
sg19
g2054
sg21
g22
sbag7
(g8
g9
NtRp2495
(dp2496
g12
g42
sg14
S'LMSans10'
p2497
sg16
I700
sg17
g13
sg18
g13
sg19
g2055
sg21
g22
sbag7
(g8
g9
NtRp2498
(dp2499
g12
g13
sg14
S'TeXGyrePagella'
p2500
sg16
I400
sg17
g13
sg18
g13
sg19
g2056
sg21
g22
sbag7
(g8
g9
NtRp2501
(dp2502
g12
g42
sg14
S'Nimbus Sans L'
p2503
sg16
I700
sg17
g13
sg18
g13
sg19
g2057
sg21
g22
sbag7
(g8
g9
NtRp2504
(dp2505
g12
g13
sg14
S'TeXGyreSchola'
p2506
sg16
I400
sg17
g13
sg18
g13
sg19
g2058
sg21
g22
sbag7
(g8
g9
NtRp2507
(dp2508
g12
g42
sg14
S'URW Palladio L'
p2509
sg16
I400
sg17
g13
sg18
g13
sg19
g2059
sg21
g22
sbag7
(g8
g9
NtRp2510
(dp2511
g12
g42
sg14
S'Nimbus Roman No9 L'
p2512
sg16
I400
sg17
g13
sg18
g13
sg19
g2060
sg21
g22
sbag7
(g8
g9
NtRp2513
(dp2514
g12
g13
sg14
S'URW Gothic L'
p2515
sg16
I400
sg17
g13
sg18
g13
sg19
g2061
sg21
g22
sbag7
(g8
g9
NtRp2516
(dp2517
g12
g13
sg14
S'Courier 10 Pitch'
p2518
sg16
I700
sg17
g13
sg18
g13
sg19
g2062
sg21
g22
sbag7
(g8
g9
NtRp2519
(dp2520
g12
g13
sg14
S'Nimbus Mono L'
p2521
sg16
I700
sg17
g13
sg18
g13
sg19
g2063
sg21
g22
sbag7
(g8
g9
NtRp2522
(dp2523
g12
g42
sg14
S'TeXGyreAdventor'
p2524
sg16
I400
sg17
g13
sg18
g13
sg19
g2064
sg21
g22
sbag7
(g8
g9
NtRp2525
(dp2526
g12
g42
sg14
S'TeXGyreBonum'
p2527
sg16
I700
sg17
g13
sg18
g13
sg19
g2065
sg21
g22
sbag7
(g8
g9
NtRp2528
(dp2529
g12
g13
sg14
S'Nimbus Sans L'
p2530
sg16
I400
sg17
g232
sg18
g13
sg19
g2066
sg21
g22
sbag7
(g8
g9
NtRp2531
(dp2532
g12
g42
sg14
S'Bitstream Charter'
p2533
sg16
I700
sg17
g13
sg18
g13
sg19
g2067
sg21
g22
sbag7
(g8
g9
NtRp2534
(dp2535
g12
g42
sg14
S'Century Schoolbook L'
p2536
sg16
I700
sg17
g13
sg18
g13
sg19
g2068
sg21
g22
sbag7
(g8
g9
NtRp2537
(dp2538
g12
g13
sg14
S'LMRomanCaps10'
p2539
sg16
I400
sg17
g13
sg18
g13
sg19
g2069
sg21
g22
sbag7
(g8
g9
NtRp2540
(dp2541
g12
g13
sg14
S'URW Bookman L'
p2542
sg16
I400
sg17
g13
sg18
g13
sg19
g2070
sg21
g22
sbag7
(g8
g9
NtRp2543
(dp2544
g12
g42
sg14
S'TeXGyreCursor'
p2545
sg16
I700
sg17
g13
sg18
g13
sg19
g2071
sg21
g22
sbag7
(g8
g9
NtRp2546
(dp2547
g12
g13
sg14
S'TeXGyreCursor'
p2548
sg16
I700
sg17
g13
sg18
g13
sg19
g2072
sg21
g22
sbag7
(g8
g9
NtRp2549
(dp2550
g12
g42
sg14
S'LMSansQuot8'
p2551
sg16
I700
sg17
g13
sg18
g13
sg19
g2073
sg21
g22
sbag7
(g8
g9
NtRp2552
(dp2553
g12
g13
sg14
S'URW Palladio L'
p2554
sg16
I500
sg17
g13
sg18
g13
sg19
g2074
sg21
g22
sbag7
(g8
g9
NtRp2555
(dp2556
g12
g42
sg14
S'URW Bookman L'
p2557
sg16
I400
sg17
g13
sg18
g13
sg19
g2075
sg21
g22
sbag7
(g8
g9
NtRp2558
(dp2559
g12
g13
sg14
S'LMMonoPropLt10'
p2560
sg16
I700
sg17
g13
sg18
g13
sg19
g2076
sg21
g22
sbag7
(g8
g9
NtRp2561
(dp2562
g12
g42
sg14
S'Nimbus Roman No9 L'
p2563
sg16
I400
sg17
g13
sg18
g13
sg19
g2077
sg21
g22
sbag7
(g8
g9
NtRp2564
(dp2565
g12
g42
sg14
S'TeXGyreHeros'
p2566
sg16
I400
sg17
g13
sg18
g13
sg19
g2078
sg21
g22
sbag7
(g8
g9
NtRp2567
(dp2568
g12
g42
sg14
S'LMMonoLt10'
p2569
sg16
I200
sg17
g13
sg18
g13
sg19
g2079
sg21
g22
sbag7
(g8
g9
NtRp2570
(dp2571
g12
g13
sg14
S'LMMonoPropLt10'
p2572
sg16
I200
sg17
g13
sg18
g13
sg19
g2080
sg21
g22
sbag7
(g8
g9
NtRp2573
(dp2574
g12
g13
sg14
S'Nimbus Roman No9 L'
p2575
sg16
I400
sg17
g13
sg18
g13
sg19
g2081
sg21
g22
sbag7
(g8
g9
NtRp2576
(dp2577
g12
g42
sg14
S'LMSans10'
p2578
sg16
I400
sg17
g13
sg18
g13
sg19
g2082
sg21
g22
sbag7
(g8
g9
NtRp2579
(dp2580
g12
g42
sg14
S'Nimbus Sans L'
p2581
sg16
I700
sg17
g232
sg18
g13
sg19
g2083
sg21
g22
sbag7
(g8
g9
NtRp2582
(dp2583
g12
g13
sg14
S'Standard Symbols L'
p2584
sg16
I400
sg17
g13
sg18
g13
sg19
g2084
sg21
g22
sbag7
(g8
g9
NtRp2585
(dp2586
g12
g13
sg14
S'Nimbus Roman No9 L'
p2587
sg16
I700
sg17
g13
sg18
g13
sg19
g2085
sg21
g22
sbag7
(g8
g9
NtRp2588
(dp2589
g12
g42
sg14
S'URW Palladio L'
p2590
sg16
I700
sg17
g13
sg18
g13
sg19
g2086
sg21
g22
sbag7
(g8
g9
NtRp2591
(dp2592
g12
g42
sg14
S'TeXGyreTermes'
p2593
sg16
I400
sg17
g13
sg18
g13
sg19
g2087
sg21
g22
sbag7
(g8
g9
NtRp2594
(dp2595
g12
g13
sg14
S'Century Schoolbook L'
p2596
sg16
I500
sg17
g13
sg18
g13
sg19
g2088
sg21
g22
sbag7
(g8
g9
NtRp2597
(dp2598
g12
g13
sg14
S'TeXGyreBonum'
p2599
sg16
I700
sg17
g13
sg18
g13
sg19
g2089
sg21
g22
sbag7
(g8
g9
NtRp2600
(dp2601
g12
g42
sg14
S'Nimbus Sans L'
p2602
sg16
I400
sg17
g232
sg18
g13
sg19
g2091
sg21
g22
sbag7
(g8
g9
NtRp2603
(dp2604
g12
g13
sg14
S'TeXGyreTermes'
p2605
sg16
I400
sg17
g13
sg18
g13
sg19
g2092
sg21
g22
sbag7
(g8
g9
NtRp2606
(dp2607
g12
g13
sg14
S'LMMonoCaps10'
p2608
sg16
I400
sg17
g13
sg18
g13
sg19
g2093
sg21
g22
sbag7
(g8
g9
NtRp2609
(dp2610
g12
g42
sg14
S'LMRomanCaps10'
p2611
sg16
I400
sg17
g13
sg18
g13
sg19
g2094
sg21
g22
sbag7
(g8
g9
NtRp2612
(dp2613
g12
g13
sg14
S'TeXGyreAdventor'
p2614
sg16
I700
sg17
g13
sg18
g13
sg19
g2095
sg21
g22
sbag7
(g8
g9
NtRp2615
(dp2616
g12
g42
sg14
S'Bitstream Charter'
p2617
sg16
I700
sg17
g13
sg18
g13
sg19
g2096
sg21
g22
sbag7
(g8
g9
NtRp2618
(dp2619
g12
g42
sg14
S'LMMonoProp10'
p2620
sg16
I400
sg17
g13
sg18
g13
sg19
g2097
sg21
g22
sbag7
(g8
g9
NtRp2621
(dp2622
g12
g13
sg14
S'LMSans10'
p2623
sg16
I400
sg17
g13
sg18
g13
sg19
g2099
sg21
g22
sbag7
(g8
g9
NtRp2624
(dp2625
g12
g13
sg14
S'LMMonoProp10'
p2626
sg16
I400
sg17
g13
sg18
g13
sg19
g2100
sg21
g22
sbag7
(g8
g9
NtRp2627
(dp2628
g12
g42
sg14
S'URW Bookman L'
p2629
sg16
I700
sg17
g13
sg18
g13
sg19
g2101
sg21
g22
sbag7
(g8
g9
NtRp2630
(dp2631
g12
g42
sg14
S'LMRomanDunh10'
p2632
sg16
I400
sg17
g13
sg18
g13
sg19
g2102
sg21
g22
sbag7
(g8
g9
NtRp2633
(dp2634
g12
g42
sg14
S'TeXGyreTermes'
p2635
sg16
I700
sg17
g13
sg18
g13
sg19
g2103
sg21
g22
sbag7
(g8
g9
NtRp2636
(dp2637
g12
g42
sg14
S'TeXGyreSchola'
p2638
sg16
I400
sg17
g13
sg18
g13
sg19
g2104
sg21
g22
sbag7
(g8
g9
NtRp2639
(dp2640
g12
g13
sg14
S'Nimbus Mono L'
p2641
sg16
I700
sg17
g13
sg18
g13
sg19
g2106
sg21
g22
sbag7
(g8
g9
NtRp2642
(dp2643
g12
g42
sg14
S'TeXGyreHerosCondensed'
p2644
sg16
I700
sg17
g232
sg18
g13
sg19
g2108
sg21
g22
sbag7
(g8
g9
NtRp2645
(dp2646
g12
g42
sg14
S'Nimbus Roman No9 L'
p2647
sg16
I700
sg17
g13
sg18
g13
sg19
g2109
sg21
g22
sbag7
(g8
g9
NtRp2648
(dp2649
g12
g42
sg14
S'URW Chancery L'
p2650
sg16
I500
sg17
g13
sg18
g13
sg19
g2111
sg21
g22
sbag7
(g8
g9
NtRp2651
(dp2652
g12
g13
sg14
S'URW Gothic L'
p2653
sg16
I600
sg17
g13
sg18
g13
sg19
g2112
sg21
g22
sbag7
(g8
g9
NtRp2654
(dp2655
g12
g42
sg14
S'LMRoman10'
p2656
sg16
I400
sg17
g13
sg18
g13
sg19
g2113
sg21
g22
sbag7
(g8
g9
NtRp2657
(dp2658
g12
g13
sg14
S'LMRoman10'
p2659
sg16
I400
sg17
g13
sg18
g13
sg19
g2115
sg21
g22
sbag7
(g8
g9
NtRp2660
(dp2661
g12
g42
sg14
S'Bitstream Charter'
p2662
sg16
I400
sg17
g13
sg18
g13
sg19
g2116
sg21
g22
sbag7
(g8
g9
NtRp2663
(dp2664
g12
g42
sg14
S'Century Schoolbook L'
p2665
sg16
I400
sg17
g13
sg18
g13
sg19
g2117
sg21
g22
sbag7
(g8
g9
NtRp2666
(dp2667
g12
g13
sg14
S'LMMonoLt10'
p2668
sg16
I200
sg17
g13
sg18
g13
sg19
g2118
sg21
g22
sbag7
(g8
g9
NtRp2669
(dp2670
g12
g13
sg14
S'Standard Symbols L'
p2671
sg16
I400
sg17
g13
sg18
g13
sg19
g2119
sg21
g22
sbag7
(g8
g9
NtRp2672
(dp2673
g12
g13
sg14
S'Nimbus Sans L'
p2674
sg16
I400
sg17
g13
sg18
g13
sg19
g2120
sg21
g22
sbag7
(g8
g9
NtRp2675
(dp2676
g12
g42
sg14
S'TeXGyrePagella'
p2677
sg16
I400
sg17
g13
sg18
g13
sg19
g2121
sg21
g22
sbag7
(g8
g9
NtRp2678
(dp2679
g12
g42
sg14
S'TeXGyreAdventor'
p2680
sg16
I700
sg17
g13
sg18
g13
sg19
g2122
sg21
g22
sbag7
(g8
g9
NtRp2681
(dp2682
g12
g13
sg14
S'TeXGyreHerosCondensed'
p2683
sg16
I400
sg17
g232
sg18
g13
sg19
g2123
sg21
g22
sbag7
(g8
g9
NtRp2684
(dp2685
g12
g42
sg14
S'LMMonoLtCond10'
p2686
sg16
I200
sg17
g232
sg18
g13
sg19
g2124
sg21
g22
sbag7
(g8
g9
NtRp2687
(dp2688
g12
g13
sg14
S'Century Schoolbook L'
p2689
sg16
I700
sg17
g13
sg18
g13
sg19
g2125
sg21
g22
sbag7
(g8
g9
NtRp2690
(dp2691
g12
g13
sg14
S'TeXGyrePagella'
p2692
sg16
I700
sg17
g13
sg18
g13
sg19
g2126
sg21
g22
sbag7
(g8
g9
NtRp2693
(dp2694
g12
g13
sg14
S'Nimbus Sans L'
p2695
sg16
I700
sg17
g232
sg18
g13
sg19
g2127
sg21
g22
sbag7
(g8
g9
NtRp2696
(dp2697
g12
g13
sg14
S'Nimbus Mono L'
p2698
sg16
I400
sg17
g13
sg18
g13
sg19
g2128
sg21
g22
sbag7
(g8
g9
NtRp2699
(dp2700
g12
g42
sg14
S'URW Gothic L'
p2701
sg16
I400
sg17
g13
sg18
g13
sg19
g2129
sg21
g22
sbag7
(g8
g9
NtRp2702
(dp2703
g12
g42
sg14
S'LMMonoPropLt10'
p2704
sg16
I700
sg17
g13
sg18
g13
sg19
g2130
sg21
g22
sbag7
(g8
g9
NtRp2705
(dp2706
g12
g42
sg14
S'Bitstream Charter'
p2707
sg16
I400
sg17
g13
sg18
g13
sg19
g2131
sg21
g22
sbag7
(g8
g9
NtRp2708
(dp2709
g12
g13
sg14
S'Bitstream Charter'
p2710
sg16
I700
sg17
g13
sg18
g13
sg19
g2132
sg21
g22
sbag7
(g8
g9
NtRp2711
(dp2712
g12
g13
sg14
S'Nimbus Sans L'
p2713
sg16
I400
sg17
g232
sg18
g13
sg19
g2133
sg21
g22
sbag7
(g8
g9
NtRp2714
(dp2715
g12
g13
sg14
S'URW Palladio L'
p2716
sg16
I700
sg17
g13
sg18
g13
sg19
g2134
sg21
g22
sbag7
(g8
g9
NtRp2717
(dp2718
g12
g42
sg14
S'TeXGyreCursor'
p2719
sg16
I400
sg17
g13
sg18
g13
sg19
g2135
sg21
g22
sbag7
(g8
g9
NtRp2720
(dp2721
g12
g42
sg14
S'Nimbus Mono L'
p2722
sg16
I700
sg17
g13
sg18
g13
sg19
g2136
sg21
g22
sbag7
(g8
g9
NtRp2723
(dp2724
g12
g42
sg14
S'Nimbus Sans L'
p2725
sg16
I700
sg17
g232
sg18
g13
sg19
g2137
sg21
g22
sbag7
(g8
g9
NtRp2726
(dp2727
g12
g13
sg14
S'URW Bookman L'
p2728
sg16
I700
sg17
g13
sg18
g13
sg19
g2138
sg21
g22
sbag7
(g8
g9
NtRp2729
(dp2730
g12
g42
sg14
S'URW Gothic L'
p2731
sg16
I400
sg17
g13
sg18
g13
sg19
g2139
sg21
g22
sbag7
(g8
g9
NtRp2732
(dp2733
g12
g13
sg14
S'URW Palladio L'
p2734
sg16
I500
sg17
g13
sg18
g13
sg19
g2140
sg21
g22
sbag7
(g8
g9
NtRp2735
(dp2736
g12
g13
sg14
S'Nimbus Sans L'
p2737
sg16
I700
sg17
g232
sg18
g13
sg19
g2141
sg21
g22
sbag7
(g8
g9
NtRp2738
(dp2739
g12
g42
sg14
S'Courier 10 Pitch'
p2740
sg16
I400
sg17
g13
sg18
g13
sg19
g2142
sg21
g22
sbag7
(g8
g9
NtRp2741
(dp2742
g12
g13
sg14
S'Nimbus Roman No9 L'
p2743
sg16
I700
sg17
g13
sg18
g13
sg19
g2143
sg21
g22
sbag7
(g8
g9
NtRp2744
(dp2745
g12
g13
sg14
S'Nimbus Sans L'
p2746
sg16
I700
sg17
g13
sg18
g13
sg19
g2144
sg21
g22
sbag7
(g8
g9
NtRp2747
(dp2748
g12
g13
sg14
S'LMSansQuot8'
p2749
sg16
I400
sg17
g13
sg18
g13
sg19
g2145
sg21
g22
sbag7
(g8
g9
NtRp2750
(dp2751
g12
g42
sg14
S'LMRomanSlant10'
p2752
sg16
I400
sg17
g13
sg18
g13
sg19
g2146
sg21
g22
sbag7
(g8
g9
NtRp2753
(dp2754
g12
g13
sg14
S'TeXGyreAdventor'
p2755
sg16
I400
sg17
g13
sg18
g13
sg19
g2148
sg21
g22
sbag7
(g8
g9
NtRp2756
(dp2757
g12
g42
sg14
S'Century Schoolbook L'
p2758
sg16
I400
sg17
g13
sg18
g13
sg19
g2149
sg21
g22
sbag7
(g8
g9
NtRp2759
(dp2760
g12
g13
sg14
S'Nimbus Roman No9 L'
p2761
sg16
I400
sg17
g13
sg18
g13
sg19
g2150
sg21
g22
sbag7
(g8
g9
NtRp2762
(dp2763
g12
g13
sg14
S'Bitstream Charter'
p2764
sg16
I400
sg17
g13
sg18
g13
sg19
g2151
sg21
g22
sbag7
(g8
g9
NtRp2765
(dp2766
g12
g42
sg14
S'Nimbus Sans L'
p2767
sg16
I400
sg17
g13
sg18
g13
sg19
g2152
sg21
g22
sbag7
(g8
g9
NtRp2768
(dp2769
g12
g42
sg14
S'LMMonoLt10'
p2770
sg16
I700
sg17
g13
sg18
g13
sg19
g2153
sg21
g22
sbag7
(g8
g9
NtRp2771
(dp2772
g12
g42
sg14
S'TeXGyreChorus'
p2773
sg16
I500
sg17
g13
sg18
g13
sg19
g2154
sg21
g22
sbag7
(g8
g9
NtRp2774
(dp2775
g12
g42
sg14
S'Courier 10 Pitch'
p2776
sg16
I700
sg17
g13
sg18
g13
sg19
g2155
sg21
g22
sbag7
(g8
g9
NtRp2777
(dp2778
g12
g42
sg14
S'LMRomanDemi10'
p2779
sg16
I600
sg17
g13
sg18
g13
sg19
g2156
sg21
g22
sbag7
(g8
g9
NtRp2780
(dp2781
g12
g42
sg14
S'URW Palladio L'
p2782
sg16
I400
sg17
g13
sg18
g13
sg19
g2157
sg21
g22
sbag7
(g8
g9
NtRp2783
(dp2784
g12
g42
sg14
S'TeXGyrePagella'
p2785
sg16
I700
sg17
g13
sg18
g13
sg19
g2158
sg21
g22
sbag7
(g8
g9
NtRp2786
(dp2787
g12
g42
sg14
S'URW Gothic L'
p2788
sg16
I600
sg17
g13
sg18
g13
sg19
g2159
sg21
g22
sbag7
(g8
g9
NtRp2789
(dp2790
g12
g13
sg14
S'LMSansDemiCond10'
p2791
sg16
I600
sg17
g232
sg18
g13
sg19
g2160
sg21
g22
sbag7
(g8
g9
NtRp2792
(dp2793
g12
g42
sg14
S'LMMonoSlant10'
p2794
sg16
I400
sg17
g13
sg18
g13
sg19
g2161
sg21
g22
sbag7
(g8
g9
NtRp2795
(dp2796
g12
g42
sg14
S'Nimbus Mono L'
p2797
sg16
I400
sg17
g13
sg18
g13
sg19
g2162
sg21
g22
sbag7
(g8
g9
NtRp2798
(dp2799
g12
g42
sg14
S'TeXGyreHerosCondensed'
p2800
sg16
I400
sg17
g232
sg18
g13
sg19
g2163
sg21
g22
sbag7
(g8
g9
NtRp2801
(dp2802
g12
g42
sg14
S'URW Gothic L'
p2803
sg16
I600
sg17
g13
sg18
g13
sg19
g2164
sg21
g22
sbag7
(g8
g9
NtRp2804
(dp2805
g12
g42
sg14
S'TeXGyreBonum'
p2806
sg16
I400
sg17
g13
sg18
g13
sg19
g2165
sg21
g22
sbag7
(g8
g9
NtRp2807
(dp2808
g12
g13
sg14
S'Dingbats'
p2809
sg16
I400
sg17
g13
sg18
g13
sg19
g2166
sg21
g22
sbag7
(g8
g9
NtRp2810
(dp2811
g12
g13
sg14
S'Bitstream Charter'
p2812
sg16
I700
sg17
g13
sg18
g13
sg19
g2167
sg21
g22
sbag7
(g8
g9
NtRp2813
(dp2814
g12
g13
sg14
S'LMRomanUnsl10'
p2815
sg16
I400
sg17
g13
sg18
g13
sg19
g2168
sg21
g22
sbasb.